
elf/am-tests/add:     file format elf64-littleriscv


Disassembly of section .text:

0000000080000000 <_start>:
    80000000:	00000413          	addi	x8,x0,0
    80000004:	00009117          	auipc	x2,0x9
    80000008:	ffc10113          	addi	x2,x2,-4 # 80009000 <_end>
    8000000c:	0fc000ef          	jal	x1,80000108 <_trm_init>

0000000080000010 <check>:
    80000010:	00050463          	beq	x10,x0,80000018 <check+0x8>
    80000014:	00008067          	jalr	x0,0(x1)
    80000018:	ff010113          	addi	x2,x2,-16
    8000001c:	00100513          	addi	x10,x0,1
    80000020:	00113423          	sd	x1,8(x2)
    80000024:	0d8000ef          	jal	x1,800000fc <halt>

0000000080000028 <main>:
    80000028:	fb010113          	addi	x2,x2,-80
    8000002c:	01713423          	sd	x23,8(x2)
    80000030:	00000b97          	auipc	x23,0x0
    80000034:	200b8b93          	addi	x23,x23,512 # 80000230 <test_data>
    80000038:	03313423          	sd	x19,40(x2)
    8000003c:	03413023          	sd	x20,32(x2)
    80000040:	01513c23          	sd	x21,24(x2)
    80000044:	01613823          	sd	x22,16(x2)
    80000048:	01813023          	sd	x24,0(x2)
    8000004c:	04113423          	sd	x1,72(x2)
    80000050:	04813023          	sd	x8,64(x2)
    80000054:	02913c23          	sd	x9,56(x2)
    80000058:	03213823          	sd	x18,48(x2)
    8000005c:	00000b17          	auipc	x22,0x0
    80000060:	0d4b0b13          	addi	x22,x22,212 # 80000130 <ans>
    80000064:	000b8a93          	addi	x21,x23,0
    80000068:	00000a13          	addi	x20,x0,0
    8000006c:	00000997          	auipc	x19,0x0
    80000070:	1e498993          	addi	x19,x19,484 # 80000250 <_bss_start>
    80000074:	04000c13          	addi	x24,x0,64
    80000078:	000aa903          	lw	x18,0(x21)
    8000007c:	000b0493          	addi	x9,x22,0
    80000080:	000b8413          	addi	x8,x23,0
    80000084:	00042503          	lw	x10,0(x8)
    80000088:	0004a783          	lw	x15,0(x9)
    8000008c:	00440413          	addi	x8,x8,4
    80000090:	0125053b          	addw	x10,x10,x18
    80000094:	40f50533          	sub	x10,x10,x15
    80000098:	00153513          	sltiu	x10,x10,1
    8000009c:	f75ff0ef          	jal	x1,80000010 <check>
    800000a0:	00448493          	addi	x9,x9,4
    800000a4:	fe8990e3          	bne	x19,x8,80000084 <main+0x5c>
    800000a8:	00100513          	addi	x10,x0,1
    800000ac:	008a0a1b          	addiw	x20,x20,8
    800000b0:	f61ff0ef          	jal	x1,80000010 <check>
    800000b4:	004a8a93          	addi	x21,x21,4
    800000b8:	020b0b13          	addi	x22,x22,32
    800000bc:	fb8a1ee3          	bne	x20,x24,80000078 <main+0x50>
    800000c0:	00100513          	addi	x10,x0,1
    800000c4:	f4dff0ef          	jal	x1,80000010 <check>
    800000c8:	04813083          	ld	x1,72(x2)
    800000cc:	04013403          	ld	x8,64(x2)
    800000d0:	03813483          	ld	x9,56(x2)
    800000d4:	03013903          	ld	x18,48(x2)
    800000d8:	02813983          	ld	x19,40(x2)
    800000dc:	02013a03          	ld	x20,32(x2)
    800000e0:	01813a83          	ld	x21,24(x2)
    800000e4:	01013b03          	ld	x22,16(x2)
    800000e8:	00813b83          	ld	x23,8(x2)
    800000ec:	00013c03          	ld	x24,0(x2)
    800000f0:	00000513          	addi	x10,x0,0
    800000f4:	05010113          	addi	x2,x2,80
    800000f8:	00008067          	jalr	x0,0(x1)

00000000800000fc <halt>:
    800000fc:	00050513          	addi	x10,x10,0
    80000100:	00100073          	ebreak
    80000104:	0000006f          	jal	x0,80000104 <halt+0x8>

0000000080000108 <_trm_init>:
    80000108:	ff010113          	addi	x2,x2,-16
    8000010c:	00000517          	auipc	x10,0x0
    80000110:	01c50513          	addi	x10,x10,28 # 80000128 <_etext>
    80000114:	00113423          	sd	x1,8(x2)
    80000118:	f11ff0ef          	jal	x1,80000028 <main>
    8000011c:	00050513          	addi	x10,x10,0
    80000120:	00100073          	ebreak
    80000124:	0000006f          	jal	x0,80000124 <_trm_init+0x1c>
