
elf/am-tests/fact:     file format elf64-littleriscv


Disassembly of section .text:

0000000080000000 <_start>:
    80000000:	00000413          	addi	x8,x0,0
    80000004:	00009117          	auipc	x2,0x9
    80000008:	ffc10113          	addi	x2,x2,-4 # 80009000 <_end>
    8000000c:	0ec000ef          	jal	x1,800000f8 <_trm_init>

0000000080000010 <check>:
    80000010:	00050463          	beq	x10,x0,80000018 <check+0x8>
    80000014:	00008067          	jalr	x0,0(x1)
    80000018:	ff010113          	addi	x2,x2,-16
    8000001c:	00100513          	addi	x10,x0,1
    80000020:	00113423          	sd	x1,8(x2)
    80000024:	0c8000ef          	jal	x1,800000ec <halt>

0000000080000028 <main>:
    80000028:	fd010113          	addi	x2,x2,-48
    8000002c:	01213823          	sd	x18,16(x2)
    80000030:	00000917          	auipc	x18,0x0
    80000034:	0f090913          	addi	x18,x18,240 # 80000120 <ans>
    80000038:	00092503          	lw	x10,0(x18)
    8000003c:	00100713          	addi	x14,x0,1
    80000040:	00913c23          	sd	x9,24(x2)
    80000044:	40e50533          	sub	x10,x10,x14
    80000048:	00000493          	addi	x9,x0,0
    8000004c:	01313423          	sd	x19,8(x2)
    80000050:	01413023          	sd	x20,0(x2)
    80000054:	00000997          	auipc	x19,0x0
    80000058:	10498993          	addi	x19,x19,260 # 80000158 <f>
    8000005c:	00d00a13          	addi	x20,x0,13
    80000060:	0014849b          	addiw	x9,x9,1
    80000064:	00153513          	sltiu	x10,x10,1
    80000068:	02813023          	sd	x8,32(x2)
    8000006c:	02113423          	sd	x1,40(x2)
    80000070:	00100413          	addi	x8,x0,1
    80000074:	00e9a023          	sw	x14,0(x19)
    80000078:	f99ff0ef          	jal	x1,80000010 <check>
    8000007c:	05448263          	beq	x9,x20,800000c0 <main+0x98>
    80000080:	06848263          	beq	x9,x8,800000e4 <main+0xbc>
    80000084:	00048793          	addi	x15,x9,0
    80000088:	00100713          	addi	x14,x0,1
    8000008c:	00078693          	addi	x13,x15,0
    80000090:	fff7879b          	addiw	x15,x15,-1
    80000094:	02e6873b          	mulw	x14,x13,x14
    80000098:	fe879ae3          	bne	x15,x8,8000008c <main+0x64>
    8000009c:	00492503          	lw	x10,4(x18)
    800000a0:	0014849b          	addiw	x9,x9,1
    800000a4:	00498993          	addi	x19,x19,4
    800000a8:	40e50533          	sub	x10,x10,x14
    800000ac:	00153513          	sltiu	x10,x10,1
    800000b0:	00490913          	addi	x18,x18,4
    800000b4:	00e9a023          	sw	x14,0(x19)
    800000b8:	f59ff0ef          	jal	x1,80000010 <check>
    800000bc:	fd4492e3          	bne	x9,x20,80000080 <main+0x58>
    800000c0:	02813083          	ld	x1,40(x2)
    800000c4:	02013403          	ld	x8,32(x2)
    800000c8:	01813483          	ld	x9,24(x2)
    800000cc:	01013903          	ld	x18,16(x2)
    800000d0:	00813983          	ld	x19,8(x2)
    800000d4:	00013a03          	ld	x20,0(x2)
    800000d8:	00000513          	addi	x10,x0,0
    800000dc:	03010113          	addi	x2,x2,48
    800000e0:	00008067          	jalr	x0,0(x1)
    800000e4:	00100713          	addi	x14,x0,1
    800000e8:	fb5ff06f          	jal	x0,8000009c <main+0x74>

00000000800000ec <halt>:
    800000ec:	00050513          	addi	x10,x10,0
    800000f0:	00100073          	ebreak
    800000f4:	0000006f          	jal	x0,800000f4 <halt+0x8>

00000000800000f8 <_trm_init>:
    800000f8:	ff010113          	addi	x2,x2,-16
    800000fc:	00000517          	auipc	x10,0x0
    80000100:	01c50513          	addi	x10,x10,28 # 80000118 <_etext>
    80000104:	00113423          	sd	x1,8(x2)
    80000108:	f21ff0ef          	jal	x1,80000028 <main>
    8000010c:	00050513          	addi	x10,x10,0
    80000110:	00100073          	ebreak
    80000114:	0000006f          	jal	x0,80000114 <_trm_init+0x1c>
