
elf/am-tests/if-else:     file format elf64-littleriscv


Disassembly of section .text:

0000000080000000 <_start>:
    80000000:	00000413          	addi	x8,x0,0
    80000004:	00009117          	auipc	x2,0x9
    80000008:	ffc10113          	addi	x2,x2,-4 # 80009000 <_end>
    8000000c:	0ec000ef          	jal	x1,800000f8 <_trm_init>

0000000080000010 <check>:
    80000010:	00050463          	beq	x10,x0,80000018 <check+0x8>
    80000014:	00008067          	jalr	x0,0(x1)
    80000018:	ff010113          	addi	x2,x2,-16
    8000001c:	00100513          	addi	x10,x0,1
    80000020:	00113423          	sd	x1,8(x2)
    80000024:	0c8000ef          	jal	x1,800000ec <halt>

0000000080000028 <main>:
    80000028:	fc010113          	addi	x2,x2,-64
    8000002c:	02813823          	sd	x8,48(x2)
    80000030:	02913423          	sd	x9,40(x2)
    80000034:	03213023          	sd	x18,32(x2)
    80000038:	01313c23          	sd	x19,24(x2)
    8000003c:	01413823          	sd	x20,16(x2)
    80000040:	01513423          	sd	x21,8(x2)
    80000044:	01613023          	sd	x22,0(x2)
    80000048:	02113c23          	sd	x1,56(x2)
    8000004c:	00000417          	auipc	x8,0x0
    80000050:	10c40413          	addi	x8,x8,268 # 80000158 <test_data>
    80000054:	00000497          	auipc	x9,0x0
    80000058:	0cc48493          	addi	x9,x9,204 # 80000120 <ans>
    8000005c:	00000997          	auipc	x19,0x0
    80000060:	13498993          	addi	x19,x19,308 # 80000190 <_bss_start>
    80000064:	1f400913          	addi	x18,x0,500
    80000068:	12c00a93          	addi	x21,x0,300
    8000006c:	06400b13          	addi	x22,x0,100
    80000070:	03200a13          	addi	x20,x0,50
    80000074:	00042783          	lw	x15,0(x8)
    80000078:	09600713          	addi	x14,x0,150
    8000007c:	00440413          	addi	x8,x8,4
    80000080:	02f94063          	blt	x18,x15,800000a0 <main+0x78>
    80000084:	00fa2733          	slt	x14,x20,x15
    80000088:	40e006b3          	sub	x13,x0,x14
    8000008c:	06400713          	addi	x14,x0,100
    80000090:	00fac863          	blt	x21,x15,800000a0 <main+0x78>
    80000094:	04b00713          	addi	x14,x0,75
    80000098:	00fb4463          	blt	x22,x15,800000a0 <main+0x78>
    8000009c:	0326f713          	andi	x14,x13,50
    800000a0:	0004a503          	lw	x10,0(x9)
    800000a4:	00448493          	addi	x9,x9,4
    800000a8:	40e50533          	sub	x10,x10,x14
    800000ac:	00153513          	sltiu	x10,x10,1
    800000b0:	f61ff0ef          	jal	x1,80000010 <check>
    800000b4:	fd3410e3          	bne	x8,x19,80000074 <main+0x4c>
    800000b8:	00100513          	addi	x10,x0,1
    800000bc:	f55ff0ef          	jal	x1,80000010 <check>
    800000c0:	03813083          	ld	x1,56(x2)
    800000c4:	03013403          	ld	x8,48(x2)
    800000c8:	02813483          	ld	x9,40(x2)
    800000cc:	02013903          	ld	x18,32(x2)
    800000d0:	01813983          	ld	x19,24(x2)
    800000d4:	01013a03          	ld	x20,16(x2)
    800000d8:	00813a83          	ld	x21,8(x2)
    800000dc:	00013b03          	ld	x22,0(x2)
    800000e0:	00000513          	addi	x10,x0,0
    800000e4:	04010113          	addi	x2,x2,64
    800000e8:	00008067          	jalr	x0,0(x1)

00000000800000ec <halt>:
    800000ec:	00050513          	addi	x10,x10,0
    800000f0:	00100073          	ebreak
    800000f4:	0000006f          	jal	x0,800000f4 <halt+0x8>

00000000800000f8 <_trm_init>:
    800000f8:	ff010113          	addi	x2,x2,-16
    800000fc:	00000517          	auipc	x10,0x0
    80000100:	01c50513          	addi	x10,x10,28 # 80000118 <_etext>
    80000104:	00113423          	sd	x1,8(x2)
    80000108:	f21ff0ef          	jal	x1,80000028 <main>
    8000010c:	00050513          	addi	x10,x10,0
    80000110:	00100073          	ebreak
    80000114:	0000006f          	jal	x0,80000114 <_trm_init+0x1c>
