
elf/am-tests/min3:     file format elf64-littleriscv


Disassembly of section .text:

0000000080000000 <_start>:
    80000000:	00000413          	addi	x8,x0,0
    80000004:	00009117          	auipc	x2,0x9
    80000008:	ffc10113          	addi	x2,x2,-4 # 80009000 <_end>
    8000000c:	144000ef          	jal	x1,80000150 <_trm_init>

0000000080000010 <check>:
    80000010:	00050463          	beq	x10,x0,80000018 <check+0x8>
    80000014:	00008067          	jalr	x0,0(x1)
    80000018:	ff010113          	addi	x2,x2,-16
    8000001c:	00100513          	addi	x10,x0,1
    80000020:	00113423          	sd	x1,8(x2)
    80000024:	120000ef          	jal	x1,80000144 <halt>

0000000080000028 <main>:
    80000028:	f9010113          	addi	x2,x2,-112
    8000002c:	03613823          	sd	x22,48(x2)
    80000030:	00000b17          	auipc	x22,0x0
    80000034:	248b0b13          	addi	x22,x22,584 # 80000278 <test_data>
    80000038:	05213823          	sd	x18,80(x2)
    8000003c:	03713423          	sd	x23,40(x2)
    80000040:	03813023          	sd	x24,32(x2)
    80000044:	06113423          	sd	x1,104(x2)
    80000048:	06813023          	sd	x8,96(x2)
    8000004c:	04913c23          	sd	x9,88(x2)
    80000050:	05313423          	sd	x19,72(x2)
    80000054:	05413023          	sd	x20,64(x2)
    80000058:	03513c23          	sd	x21,56(x2)
    8000005c:	01913c23          	sd	x25,24(x2)
    80000060:	01a13823          	sd	x26,16(x2)
    80000064:	01b13423          	sd	x27,8(x2)
    80000068:	00000c17          	auipc	x24,0x0
    8000006c:	110c0c13          	addi	x24,x24,272 # 80000178 <ans>
    80000070:	00000917          	auipc	x18,0x0
    80000074:	21890913          	addi	x18,x18,536 # 80000288 <_bss_start>
    80000078:	000b0b93          	addi	x23,x22,0
    8000007c:	000baa83          	lw	x21,0(x23)
    80000080:	000c0993          	addi	x19,x24,0
    80000084:	000b0493          	addi	x9,x22,0
    80000088:	000a8c93          	addi	x25,x21,0
    8000008c:	0004a783          	lw	x15,0(x9)
    80000090:	0007841b          	addiw	x8,x15,0
    80000094:	00fad463          	bge	x21,x15,8000009c <main+0x74>
    80000098:	000c841b          	addiw	x8,x25,0
    8000009c:	00098d93          	addi	x27,x19,0
    800000a0:	000b0d13          	addi	x26,x22,0
    800000a4:	00040a13          	addi	x20,x8,0
    800000a8:	000d2783          	lw	x15,0(x26)
    800000ac:	004d0d13          	addi	x26,x26,4
    800000b0:	0007851b          	addiw	x10,x15,0
    800000b4:	00f45463          	bge	x8,x15,800000bc <main+0x94>
    800000b8:	000a051b          	addiw	x10,x20,0
    800000bc:	000da783          	lw	x15,0(x27)
    800000c0:	004d8d93          	addi	x27,x27,4
    800000c4:	40f50533          	sub	x10,x10,x15
    800000c8:	00153513          	sltiu	x10,x10,1
    800000cc:	f45ff0ef          	jal	x1,80000010 <check>
    800000d0:	fd2d1ce3          	bne	x26,x18,800000a8 <main+0x80>
    800000d4:	00100513          	addi	x10,x0,1
    800000d8:	00448493          	addi	x9,x9,4
    800000dc:	f35ff0ef          	jal	x1,80000010 <check>
    800000e0:	01098993          	addi	x19,x19,16
    800000e4:	fba494e3          	bne	x9,x26,8000008c <main+0x64>
    800000e8:	00100513          	addi	x10,x0,1
    800000ec:	004b8b93          	addi	x23,x23,4
    800000f0:	f21ff0ef          	jal	x1,80000010 <check>
    800000f4:	040c0c13          	addi	x24,x24,64
    800000f8:	f89b92e3          	bne	x23,x9,8000007c <main+0x54>
    800000fc:	00100513          	addi	x10,x0,1
    80000100:	f11ff0ef          	jal	x1,80000010 <check>
    80000104:	06813083          	ld	x1,104(x2)
    80000108:	06013403          	ld	x8,96(x2)
    8000010c:	05813483          	ld	x9,88(x2)
    80000110:	05013903          	ld	x18,80(x2)
    80000114:	04813983          	ld	x19,72(x2)
    80000118:	04013a03          	ld	x20,64(x2)
    8000011c:	03813a83          	ld	x21,56(x2)
    80000120:	03013b03          	ld	x22,48(x2)
    80000124:	02813b83          	ld	x23,40(x2)
    80000128:	02013c03          	ld	x24,32(x2)
    8000012c:	01813c83          	ld	x25,24(x2)
    80000130:	01013d03          	ld	x26,16(x2)
    80000134:	00813d83          	ld	x27,8(x2)
    80000138:	00000513          	addi	x10,x0,0
    8000013c:	07010113          	addi	x2,x2,112
    80000140:	00008067          	jalr	x0,0(x1)

0000000080000144 <halt>:
    80000144:	00050513          	addi	x10,x10,0
    80000148:	00100073          	ebreak
    8000014c:	0000006f          	jal	x0,8000014c <halt+0x8>

0000000080000150 <_trm_init>:
    80000150:	ff010113          	addi	x2,x2,-16
    80000154:	00000517          	auipc	x10,0x0
    80000158:	01c50513          	addi	x10,x10,28 # 80000170 <_etext>
    8000015c:	00113423          	sd	x1,8(x2)
    80000160:	ec9ff0ef          	jal	x1,80000028 <main>
    80000164:	00050513          	addi	x10,x10,0
    80000168:	00100073          	ebreak
    8000016c:	0000006f          	jal	x0,8000016c <_trm_init+0x1c>
