
elf/am-tests/mul-longlong:     file format elf64-littleriscv


Disassembly of section .text:

0000000080000000 <_start>:
    80000000:	00000413          	addi	x8,x0,0
    80000004:	00009117          	auipc	x2,0x9
    80000008:	ffc10113          	addi	x2,x2,-4 # 80009000 <_end>
    8000000c:	130000ef          	jal	x1,8000013c <_trm_init>

0000000080000010 <check>:
    80000010:	00050463          	beq	x10,x0,80000018 <check+0x8>
    80000014:	00008067          	jalr	x0,0(x1)
    80000018:	ff010113          	addi	x2,x2,-16
    8000001c:	00100513          	addi	x10,x0,1
    80000020:	00113423          	sd	x1,8(x2)
    80000024:	10c000ef          	jal	x1,80000130 <halt>

0000000080000028 <main>:
    80000028:	fa010113          	addi	x2,x2,-96
    8000002c:	04913423          	sd	x9,72(x2)
    80000030:	05213023          	sd	x18,64(x2)
    80000034:	03313c23          	sd	x19,56(x2)
    80000038:	03413823          	sd	x20,48(x2)
    8000003c:	03513423          	sd	x21,40(x2)
    80000040:	03613023          	sd	x22,32(x2)
    80000044:	01813823          	sd	x24,16(x2)
    80000048:	00000493          	addi	x9,x0,0
    8000004c:	04113c23          	sd	x1,88(x2)
    80000050:	04813823          	sd	x8,80(x2)
    80000054:	01713c23          	sd	x23,24(x2)
    80000058:	01913423          	sd	x25,8(x2)
    8000005c:	00400913          	addi	x18,x0,4
    80000060:	00000a17          	auipc	x20,0x0
    80000064:	158a0a13          	addi	x20,x20,344 # 800001b8 <test_data>
    80000068:	00000993          	addi	x19,x0,0
    8000006c:	00000b17          	auipc	x22,0x0
    80000070:	0fcb0b13          	addi	x22,x22,252 # 80000168 <ans>
    80000074:	00300a93          	addi	x21,x0,3
    80000078:	00048c1b          	addiw	x24,x9,0
    8000007c:	07248463          	beq	x9,x18,800000e4 <main+0xbc>
    80000080:	000a2783          	lw	x15,0(x20)
    80000084:	00399413          	slli	x8,x19,0x3
    80000088:	008b0433          	add	x8,x22,x8
    8000008c:	00078b93          	addi	x23,x15,0
    80000090:	000a0c93          	addi	x25,x20,0
    80000094:	037787b3          	mul	x15,x15,x23
    80000098:	00043503          	ld	x10,0(x8)
    8000009c:	001c0c1b          	addiw	x24,x24,1
    800000a0:	004c8c93          	addi	x25,x25,4
    800000a4:	00840413          	addi	x8,x8,8
    800000a8:	40f50533          	sub	x10,x10,x15
    800000ac:	00153513          	sltiu	x10,x10,1
    800000b0:	f61ff0ef          	jal	x1,80000010 <check>
    800000b4:	012c0663          	beq	x24,x18,800000c0 <main+0x98>
    800000b8:	000ca783          	lw	x15,0(x25)
    800000bc:	fd9ff06f          	jal	x0,80000094 <main+0x6c>
    800000c0:	0049899b          	addiw	x19,x19,4
    800000c4:	00100513          	addi	x10,x0,1
    800000c8:	409989bb          	subw	x19,x19,x9
    800000cc:	f45ff0ef          	jal	x1,80000010 <check>
    800000d0:	03548063          	beq	x9,x21,800000f0 <main+0xc8>
    800000d4:	0014849b          	addiw	x9,x9,1
    800000d8:	004a0a13          	addi	x20,x20,4
    800000dc:	00048c1b          	addiw	x24,x9,0
    800000e0:	fb2490e3          	bne	x9,x18,80000080 <main+0x58>
    800000e4:	00100513          	addi	x10,x0,1
    800000e8:	f29ff0ef          	jal	x1,80000010 <check>
    800000ec:	fe9ff06f          	jal	x0,800000d4 <main+0xac>
    800000f0:	00100513          	addi	x10,x0,1
    800000f4:	f1dff0ef          	jal	x1,80000010 <check>
    800000f8:	05813083          	ld	x1,88(x2)
    800000fc:	05013403          	ld	x8,80(x2)
    80000100:	04813483          	ld	x9,72(x2)
    80000104:	04013903          	ld	x18,64(x2)
    80000108:	03813983          	ld	x19,56(x2)
    8000010c:	03013a03          	ld	x20,48(x2)
    80000110:	02813a83          	ld	x21,40(x2)
    80000114:	02013b03          	ld	x22,32(x2)
    80000118:	01813b83          	ld	x23,24(x2)
    8000011c:	01013c03          	ld	x24,16(x2)
    80000120:	00813c83          	ld	x25,8(x2)
    80000124:	00000513          	addi	x10,x0,0
    80000128:	06010113          	addi	x2,x2,96
    8000012c:	00008067          	jalr	x0,0(x1)

0000000080000130 <halt>:
    80000130:	00050513          	addi	x10,x10,0
    80000134:	00100073          	ebreak
    80000138:	0000006f          	jal	x0,80000138 <halt+0x8>

000000008000013c <_trm_init>:
    8000013c:	ff010113          	addi	x2,x2,-16
    80000140:	00000517          	auipc	x10,0x0
    80000144:	02050513          	addi	x10,x10,32 # 80000160 <mainargs>
    80000148:	00113423          	sd	x1,8(x2)
    8000014c:	eddff0ef          	jal	x1,80000028 <main>
    80000150:	00050513          	addi	x10,x10,0
    80000154:	00100073          	ebreak
    80000158:	0000006f          	jal	x0,80000158 <_trm_init+0x1c>
