
elf/am-tests/pascal:     file format elf64-littleriscv


Disassembly of section .text:

0000000080000000 <_start>:
    80000000:	00000413          	addi	x8,x0,0
    80000004:	00009117          	auipc	x2,0x9
    80000008:	ffc10113          	addi	x2,x2,-4 # 80009000 <_end>
    8000000c:	108000ef          	jal	x1,80000114 <_trm_init>

0000000080000010 <check>:
    80000010:	00050463          	beq	x10,x0,80000018 <check+0x8>
    80000014:	00008067          	jalr	x0,0(x1)
    80000018:	ff010113          	addi	x2,x2,-16
    8000001c:	00100513          	addi	x10,x0,1
    80000020:	00113423          	sd	x1,8(x2)
    80000024:	0e4000ef          	jal	x1,80000108 <halt>

0000000080000028 <main>:
    80000028:	00100793          	addi	x15,x0,1
    8000002c:	fe010113          	addi	x2,x2,-32
    80000030:	02079793          	slli	x15,x15,0x20
    80000034:	00113c23          	sd	x1,24(x2)
    80000038:	00813823          	sd	x8,16(x2)
    8000003c:	00913423          	sd	x9,8(x2)
    80000040:	01213023          	sd	x18,0(x2)
    80000044:	00000897          	auipc	x17,0x0
    80000048:	17c88893          	addi	x17,x17,380 # 800001c0 <a>
    8000004c:	00178793          	addi	x15,x15,1
    80000050:	00f8b023          	sd	x15,0(x17)
    80000054:	00000597          	auipc	x11,0x0
    80000058:	17458593          	addi	x11,x11,372 # 800001c8 <a+0x8>
    8000005c:	00000817          	auipc	x16,0x0
    80000060:	1e080813          	addi	x16,x16,480 # 8000023c <a+0x7c>
    80000064:	00100713          	addi	x14,x0,1
    80000068:	00100513          	addi	x10,x0,1
    8000006c:	00000417          	auipc	x8,0x0
    80000070:	15840413          	addi	x8,x8,344 # 800001c4 <a+0x4>
    80000074:	00040793          	addi	x15,x8,0
    80000078:	00100693          	addi	x13,x0,1
    8000007c:	0080006f          	jal	x0,80000084 <main+0x5c>
    80000080:	0007a703          	lw	x14,0(x15)
    80000084:	00d7063b          	addw	x12,x14,x13
    80000088:	00c7a023          	sw	x12,0(x15)
    8000008c:	00478793          	addi	x15,x15,4
    80000090:	00070693          	addi	x13,x14,0
    80000094:	feb796e3          	bne	x15,x11,80000080 <main+0x58>
    80000098:	00a7a023          	sw	x10,0(x15)
    8000009c:	00478593          	addi	x11,x15,4
    800000a0:	01058663          	beq	x11,x16,800000ac <main+0x84>
    800000a4:	0048a703          	lw	x14,4(x17)
    800000a8:	fc5ff06f          	jal	x0,8000006c <main+0x44>
    800000ac:	00000497          	auipc	x9,0x0
    800000b0:	09448493          	addi	x9,x9,148 # 80000140 <ans>
    800000b4:	00000917          	auipc	x18,0x0
    800000b8:	10890913          	addi	x18,x18,264 # 800001bc <ans+0x7c>
    800000bc:	00100793          	addi	x15,x0,1
    800000c0:	00c0006f          	jal	x0,800000cc <main+0xa4>
    800000c4:	00042783          	lw	x15,0(x8)
    800000c8:	00440413          	addi	x8,x8,4
    800000cc:	0004a503          	lw	x10,0(x9)
    800000d0:	00448493          	addi	x9,x9,4
    800000d4:	40f50533          	sub	x10,x10,x15
    800000d8:	00153513          	sltiu	x10,x10,1
    800000dc:	f35ff0ef          	jal	x1,80000010 <check>
    800000e0:	fe9912e3          	bne	x18,x9,800000c4 <main+0x9c>
    800000e4:	00100513          	addi	x10,x0,1
    800000e8:	f29ff0ef          	jal	x1,80000010 <check>
    800000ec:	01813083          	ld	x1,24(x2)
    800000f0:	01013403          	ld	x8,16(x2)
    800000f4:	00813483          	ld	x9,8(x2)
    800000f8:	00013903          	ld	x18,0(x2)
    800000fc:	00000513          	addi	x10,x0,0
    80000100:	02010113          	addi	x2,x2,32
    80000104:	00008067          	jalr	x0,0(x1)

0000000080000108 <halt>:
    80000108:	00050513          	addi	x10,x10,0
    8000010c:	00100073          	ebreak
    80000110:	0000006f          	jal	x0,80000110 <halt+0x8>

0000000080000114 <_trm_init>:
    80000114:	ff010113          	addi	x2,x2,-16
    80000118:	00000517          	auipc	x10,0x0
    8000011c:	02050513          	addi	x10,x10,32 # 80000138 <mainargs>
    80000120:	00113423          	sd	x1,8(x2)
    80000124:	f05ff0ef          	jal	x1,80000028 <main>
    80000128:	00050513          	addi	x10,x10,0
    8000012c:	00100073          	ebreak
    80000130:	0000006f          	jal	x0,80000130 <_trm_init+0x1c>
