
elf/am-tests/quick-sort:     file format elf64-littleriscv


Disassembly of section .text:

0000000080000000 <_start>:
    80000000:	00000413          	addi	x8,x0,0
    80000004:	00009117          	auipc	x2,0x9
    80000008:	ffc10113          	addi	x2,x2,-4 # 80009000 <_end>
    8000000c:	3a8000ef          	jal	x1,800003b4 <_trm_init>

0000000080000010 <check>:
    80000010:	00050463          	beq	x10,x0,80000018 <check+0x8>
    80000014:	00008067          	jalr	x0,0(x1)
    80000018:	ff010113          	addi	x2,x2,-16
    8000001c:	00100513          	addi	x10,x0,1
    80000020:	00113423          	sd	x1,8(x2)
    80000024:	384000ef          	jal	x1,800003a8 <halt>

0000000080000028 <partition>:
    80000028:	00259813          	slli	x16,x11,0x2
    8000002c:	010506b3          	add	x13,x10,x16
    80000030:	00050313          	addi	x6,x10,0
    80000034:	0006a883          	lw	x17,0(x13)
    80000038:	00060513          	addi	x10,x12,0
    8000003c:	08c5d863          	bge	x11,x12,800000cc <partition+0xa4>
    80000040:	00261793          	slli	x15,x12,0x2
    80000044:	00f307b3          	add	x15,x6,x15
    80000048:	0007a783          	lw	x15,0(x15)
    8000004c:	fff50693          	addi	x13,x10,-1
    80000050:	00269693          	slli	x13,x13,0x2
    80000054:	00d306b3          	add	x13,x6,x13
    80000058:	00068713          	addi	x14,x13,0
    8000005c:	02f8d663          	bge	x17,x15,80000088 <partition+0x60>
    80000060:	fff5051b          	addiw	x10,x10,-1
    80000064:	00072783          	lw	x15,0(x14)
    80000068:	ffc70693          	addi	x13,x14,-4
    8000006c:	fea5c6e3          	blt	x11,x10,80000058 <partition+0x30>
    80000070:	010306b3          	add	x13,x6,x16
    80000074:	00f6a023          	sw	x15,0(x13)
    80000078:	00058513          	addi	x10,x11,0
    8000007c:	00f72023          	sw	x15,0(x14)
    80000080:	0116a023          	sw	x17,0(x13)
    80000084:	00008067          	jalr	x0,0(x1)
    80000088:	010306b3          	add	x13,x6,x16
    8000008c:	00251713          	slli	x14,x10,0x2
    80000090:	00f6a023          	sw	x15,0(x13)
    80000094:	00e30733          	add	x14,x6,x14
    80000098:	04a5d063          	bge	x11,x10,800000d8 <partition+0xb0>
    8000009c:	00480613          	addi	x12,x16,4
    800000a0:	00c30633          	add	x12,x6,x12
    800000a4:	0015859b          	addiw	x11,x11,1
    800000a8:	00062783          	lw	x15,0(x12)
    800000ac:	00060693          	addi	x13,x12,0
    800000b0:	00460613          	addi	x12,x12,4
    800000b4:	fca584e3          	beq	x11,x10,8000007c <partition+0x54>
    800000b8:	fef8d6e3          	bge	x17,x15,800000a4 <partition+0x7c>
    800000bc:	00f72023          	sw	x15,0(x14)
    800000c0:	02a5d063          	bge	x11,x10,800000e0 <partition+0xb8>
    800000c4:	00259813          	slli	x16,x11,0x2
    800000c8:	f85ff06f          	jal	x0,8000004c <partition+0x24>
    800000cc:	00058513          	addi	x10,x11,0
    800000d0:	0116a023          	sw	x17,0(x13)
    800000d4:	00008067          	jalr	x0,0(x1)
    800000d8:	00058513          	addi	x10,x11,0
    800000dc:	fa1ff06f          	jal	x0,8000007c <partition+0x54>
    800000e0:	00259693          	slli	x13,x11,0x2
    800000e4:	00d306b3          	add	x13,x6,x13
    800000e8:	00058513          	addi	x10,x11,0
    800000ec:	f95ff06f          	jal	x0,80000080 <partition+0x58>

00000000800000f0 <quick_sort>:
    800000f0:	1ec5da63          	bge	x11,x12,800002e4 <quick_sort+0x1f4>
    800000f4:	f5010113          	addi	x2,x2,-176
    800000f8:	0a813023          	sd	x8,160(x2)
    800000fc:	07513c23          	sd	x21,120(x2)
    80000100:	07713423          	sd	x23,104(x2)
    80000104:	0a113423          	sd	x1,168(x2)
    80000108:	08913c23          	sd	x9,152(x2)
    8000010c:	09213823          	sd	x18,144(x2)
    80000110:	09313423          	sd	x19,136(x2)
    80000114:	09413023          	sd	x20,128(x2)
    80000118:	07613823          	sd	x22,112(x2)
    8000011c:	07813023          	sd	x24,96(x2)
    80000120:	05913c23          	sd	x25,88(x2)
    80000124:	05a13823          	sd	x26,80(x2)
    80000128:	05b13423          	sd	x27,72(x2)
    8000012c:	00058b93          	addi	x23,x11,0
    80000130:	00060a93          	addi	x21,x12,0
    80000134:	00050413          	addi	x8,x10,0
    80000138:	000a8613          	addi	x12,x21,0
    8000013c:	000b8593          	addi	x11,x23,0
    80000140:	00040513          	addi	x10,x8,0
    80000144:	ee5ff0ef          	jal	x1,80000028 <partition>
    80000148:	00a13423          	sd	x10,8(x2)
    8000014c:	fff50c9b          	addiw	x25,x10,-1
    80000150:	159bd663          	bge	x23,x25,8000029c <quick_sort+0x1ac>
    80000154:	000c8613          	addi	x12,x25,0
    80000158:	000b8593          	addi	x11,x23,0
    8000015c:	00040513          	addi	x10,x8,0
    80000160:	ec9ff0ef          	jal	x1,80000028 <partition>
    80000164:	00a13823          	sd	x10,16(x2)
    80000168:	fff50d1b          	addiw	x26,x10,-1
    8000016c:	13abd263          	bge	x23,x26,80000290 <quick_sort+0x1a0>
    80000170:	000d0613          	addi	x12,x26,0
    80000174:	000b8593          	addi	x11,x23,0
    80000178:	00040513          	addi	x10,x8,0
    8000017c:	eadff0ef          	jal	x1,80000028 <partition>
    80000180:	00a13c23          	sd	x10,24(x2)
    80000184:	fff50d9b          	addiw	x27,x10,-1
    80000188:	0fbbde63          	bge	x23,x27,80000284 <quick_sort+0x194>
    8000018c:	000d8613          	addi	x12,x27,0
    80000190:	000b8593          	addi	x11,x23,0
    80000194:	00040513          	addi	x10,x8,0
    80000198:	e91ff0ef          	jal	x1,80000028 <partition>
    8000019c:	02a13023          	sd	x10,32(x2)
    800001a0:	fff5099b          	addiw	x19,x10,-1
    800001a4:	0d3bda63          	bge	x23,x19,80000278 <quick_sort+0x188>
    800001a8:	00098613          	addi	x12,x19,0
    800001ac:	000b8593          	addi	x11,x23,0
    800001b0:	00040513          	addi	x10,x8,0
    800001b4:	e75ff0ef          	jal	x1,80000028 <partition>
    800001b8:	fff5091b          	addiw	x18,x10,-1
    800001bc:	00050493          	addi	x9,x10,0
    800001c0:	0b2bd863          	bge	x23,x18,80000270 <quick_sort+0x180>
    800001c4:	00090613          	addi	x12,x18,0
    800001c8:	000b8593          	addi	x11,x23,0
    800001cc:	00040513          	addi	x10,x8,0
    800001d0:	e59ff0ef          	jal	x1,80000028 <partition>
    800001d4:	fff50b1b          	addiw	x22,x10,-1
    800001d8:	00050a13          	addi	x20,x10,0
    800001dc:	096bd663          	bge	x23,x22,80000268 <quick_sort+0x178>
    800001e0:	000b0613          	addi	x12,x22,0
    800001e4:	000b8593          	addi	x11,x23,0
    800001e8:	00040513          	addi	x10,x8,0
    800001ec:	e3dff0ef          	jal	x1,80000028 <partition>
    800001f0:	02a13423          	sd	x10,40(x2)
    800001f4:	fff50c1b          	addiw	x24,x10,-1
    800001f8:	078bd263          	bge	x23,x24,8000025c <quick_sort+0x16c>
    800001fc:	000c0613          	addi	x12,x24,0
    80000200:	000b8593          	addi	x11,x23,0
    80000204:	00040513          	addi	x10,x8,0
    80000208:	e21ff0ef          	jal	x1,80000028 <partition>
    8000020c:	fff5081b          	addiw	x16,x10,-1
    80000210:	00050713          	addi	x14,x10,0
    80000214:	050bd063          	bge	x23,x16,80000254 <quick_sort+0x164>
    80000218:	00080613          	addi	x12,x16,0
    8000021c:	000b8593          	addi	x11,x23,0
    80000220:	00040513          	addi	x10,x8,0
    80000224:	02e13c23          	sd	x14,56(x2)
    80000228:	03013823          	sd	x16,48(x2)
    8000022c:	dfdff0ef          	jal	x1,80000028 <partition>
    80000230:	00050893          	addi	x17,x10,0
    80000234:	000b8593          	addi	x11,x23,0
    80000238:	fff5061b          	addiw	x12,x10,-1
    8000023c:	00040513          	addi	x10,x8,0
    80000240:	00188b9b          	addiw	x23,x17,1
    80000244:	eadff0ef          	jal	x1,800000f0 <quick_sort>
    80000248:	03013803          	ld	x16,48(x2)
    8000024c:	03813703          	ld	x14,56(x2)
    80000250:	fd0bc4e3          	blt	x23,x16,80000218 <quick_sort+0x128>
    80000254:	00170b9b          	addiw	x23,x14,1
    80000258:	fb8bc2e3          	blt	x23,x24,800001fc <quick_sort+0x10c>
    8000025c:	02813783          	ld	x15,40(x2)
    80000260:	00178b9b          	addiw	x23,x15,1
    80000264:	f76bcee3          	blt	x23,x22,800001e0 <quick_sort+0xf0>
    80000268:	001a0b9b          	addiw	x23,x20,1
    8000026c:	f52bcce3          	blt	x23,x18,800001c4 <quick_sort+0xd4>
    80000270:	00148b9b          	addiw	x23,x9,1
    80000274:	f33bcae3          	blt	x23,x19,800001a8 <quick_sort+0xb8>
    80000278:	02013783          	ld	x15,32(x2)
    8000027c:	00178b9b          	addiw	x23,x15,1
    80000280:	f1bbc6e3          	blt	x23,x27,8000018c <quick_sort+0x9c>
    80000284:	01813783          	ld	x15,24(x2)
    80000288:	00178b9b          	addiw	x23,x15,1
    8000028c:	efabc2e3          	blt	x23,x26,80000170 <quick_sort+0x80>
    80000290:	01013783          	ld	x15,16(x2)
    80000294:	00178b9b          	addiw	x23,x15,1
    80000298:	eb9bcee3          	blt	x23,x25,80000154 <quick_sort+0x64>
    8000029c:	00813783          	ld	x15,8(x2)
    800002a0:	00178b9b          	addiw	x23,x15,1
    800002a4:	e95bcae3          	blt	x23,x21,80000138 <quick_sort+0x48>
    800002a8:	0a813083          	ld	x1,168(x2)
    800002ac:	0a013403          	ld	x8,160(x2)
    800002b0:	09813483          	ld	x9,152(x2)
    800002b4:	09013903          	ld	x18,144(x2)
    800002b8:	08813983          	ld	x19,136(x2)
    800002bc:	08013a03          	ld	x20,128(x2)
    800002c0:	07813a83          	ld	x21,120(x2)
    800002c4:	07013b03          	ld	x22,112(x2)
    800002c8:	06813b83          	ld	x23,104(x2)
    800002cc:	06013c03          	ld	x24,96(x2)
    800002d0:	05813c83          	ld	x25,88(x2)
    800002d4:	05013d03          	ld	x26,80(x2)
    800002d8:	04813d83          	ld	x27,72(x2)
    800002dc:	0b010113          	addi	x2,x2,176
    800002e0:	00008067          	jalr	x0,0(x1)
    800002e4:	00008067          	jalr	x0,0(x1)

00000000800002e8 <main>:
    800002e8:	fd010113          	addi	x2,x2,-48
    800002ec:	00000517          	auipc	x10,0x0
    800002f0:	0f450513          	addi	x10,x10,244 # 800003e0 <a>
    800002f4:	00913c23          	sd	x9,24(x2)
    800002f8:	01300613          	addi	x12,x0,19
    800002fc:	00050493          	addi	x9,x10,0
    80000300:	00000593          	addi	x11,x0,0
    80000304:	02813023          	sd	x8,32(x2)
    80000308:	01213823          	sd	x18,16(x2)
    8000030c:	01313423          	sd	x19,8(x2)
    80000310:	02113423          	sd	x1,40(x2)
    80000314:	00048913          	addi	x18,x9,0
    80000318:	dd9ff0ef          	jal	x1,800000f0 <quick_sort>
    8000031c:	00000413          	addi	x8,x0,0
    80000320:	01400993          	addi	x19,x0,20
    80000324:	00092503          	lw	x10,0(x18)
    80000328:	00490913          	addi	x18,x18,4
    8000032c:	40850533          	sub	x10,x10,x8
    80000330:	00153513          	sltiu	x10,x10,1
    80000334:	0014041b          	addiw	x8,x8,1
    80000338:	cd9ff0ef          	jal	x1,80000010 <check>
    8000033c:	ff3414e3          	bne	x8,x19,80000324 <main+0x3c>
    80000340:	00100513          	addi	x10,x0,1
    80000344:	ccdff0ef          	jal	x1,80000010 <check>
    80000348:	01300613          	addi	x12,x0,19
    8000034c:	00000593          	addi	x11,x0,0
    80000350:	00000517          	auipc	x10,0x0
    80000354:	09050513          	addi	x10,x10,144 # 800003e0 <a>
    80000358:	d99ff0ef          	jal	x1,800000f0 <quick_sort>
    8000035c:	00000413          	addi	x8,x0,0
    80000360:	01400913          	addi	x18,x0,20
    80000364:	0004a503          	lw	x10,0(x9)
    80000368:	00448493          	addi	x9,x9,4
    8000036c:	40850533          	sub	x10,x10,x8
    80000370:	00153513          	sltiu	x10,x10,1
    80000374:	0014041b          	addiw	x8,x8,1
    80000378:	c99ff0ef          	jal	x1,80000010 <check>
    8000037c:	ff2414e3          	bne	x8,x18,80000364 <main+0x7c>
    80000380:	00100513          	addi	x10,x0,1
    80000384:	c8dff0ef          	jal	x1,80000010 <check>
    80000388:	02813083          	ld	x1,40(x2)
    8000038c:	02013403          	ld	x8,32(x2)
    80000390:	01813483          	ld	x9,24(x2)
    80000394:	01013903          	ld	x18,16(x2)
    80000398:	00813983          	ld	x19,8(x2)
    8000039c:	00000513          	addi	x10,x0,0
    800003a0:	03010113          	addi	x2,x2,48
    800003a4:	00008067          	jalr	x0,0(x1)

00000000800003a8 <halt>:
    800003a8:	00050513          	addi	x10,x10,0
    800003ac:	00100073          	ebreak
    800003b0:	0000006f          	jal	x0,800003b0 <halt+0x8>

00000000800003b4 <_trm_init>:
    800003b4:	ff010113          	addi	x2,x2,-16
    800003b8:	00000517          	auipc	x10,0x0
    800003bc:	02050513          	addi	x10,x10,32 # 800003d8 <mainargs>
    800003c0:	00113423          	sd	x1,8(x2)
    800003c4:	f25ff0ef          	jal	x1,800002e8 <main>
    800003c8:	00050513          	addi	x10,x10,0
    800003cc:	00100073          	ebreak
    800003d0:	0000006f          	jal	x0,800003d0 <_trm_init+0x1c>
