
elf/am-tests/recursion:     file format elf64-littleriscv


Disassembly of section .text:

0000000080000000 <_start>:
    80000000:	00000413          	addi	x8,x0,0
    80000004:	00009117          	auipc	x2,0x9
    80000008:	ffc10113          	addi	x2,x2,-4 # 80009000 <_end>
    8000000c:	248000ef          	jal	x1,80000254 <_trm_init>

0000000080000010 <f0>:
    80000010:	00000797          	auipc	x15,0x0
    80000014:	2a078793          	addi	x15,x15,672 # 800002b0 <lvl>
    80000018:	0007a703          	lw	x14,0(x15)
    8000001c:	00b75463          	bge	x14,x11,80000024 <f0+0x14>
    80000020:	00b7a023          	sw	x11,0(x15)
    80000024:	00000717          	auipc	x14,0x0
    80000028:	29070713          	addi	x14,x14,656 # 800002b4 <rec>
    8000002c:	00072783          	lw	x15,0(x14)
    80000030:	0017879b          	addiw	x15,x15,1
    80000034:	00f72023          	sw	x15,0(x14)
    80000038:	00a05e63          	bge	x0,x10,80000054 <f0+0x44>
    8000003c:	00300793          	addi	x15,x0,3
    80000040:	02f5453b          	divw	x10,x10,x15
    80000044:	0015859b          	addiw	x11,x11,1
    80000048:	00000797          	auipc	x15,0x0
    8000004c:	2607b783          	ld	x15,608(x15) # 800002a8 <func+0x18>
    80000050:	00078067          	jalr	x0,0(x15)
    80000054:	00100513          	addi	x10,x0,1
    80000058:	00008067          	jalr	x0,0(x1)

000000008000005c <f1>:
    8000005c:	00000797          	auipc	x15,0x0
    80000060:	25478793          	addi	x15,x15,596 # 800002b0 <lvl>
    80000064:	0007a703          	lw	x14,0(x15)
    80000068:	00b75463          	bge	x14,x11,80000070 <f1+0x14>
    8000006c:	00b7a023          	sw	x11,0(x15)
    80000070:	00000717          	auipc	x14,0x0
    80000074:	24470713          	addi	x14,x14,580 # 800002b4 <rec>
    80000078:	00072783          	lw	x15,0(x14)
    8000007c:	0017879b          	addiw	x15,x15,1
    80000080:	00f72023          	sw	x15,0(x14)
    80000084:	00a05c63          	bge	x0,x10,8000009c <f1+0x40>
    80000088:	0015859b          	addiw	x11,x11,1
    8000008c:	fff5051b          	addiw	x10,x10,-1
    80000090:	00000797          	auipc	x15,0x0
    80000094:	2007b783          	ld	x15,512(x15) # 80000290 <func>
    80000098:	00078067          	jalr	x0,0(x15)
    8000009c:	00100513          	addi	x10,x0,1
    800000a0:	00008067          	jalr	x0,0(x1)

00000000800000a4 <f2>:
    800000a4:	00000717          	auipc	x14,0x0
    800000a8:	20c70713          	addi	x14,x14,524 # 800002b0 <lvl>
    800000ac:	00072683          	lw	x13,0(x14)
    800000b0:	00050793          	addi	x15,x10,0
    800000b4:	00b6d463          	bge	x13,x11,800000bc <f2+0x18>
    800000b8:	00b72023          	sw	x11,0(x14)
    800000bc:	00000697          	auipc	x13,0x0
    800000c0:	1f868693          	addi	x13,x13,504 # 800002b4 <rec>
    800000c4:	0006a703          	lw	x14,0(x13)
    800000c8:	00100513          	addi	x10,x0,1
    800000cc:	0017071b          	addiw	x14,x14,1
    800000d0:	00e6a023          	sw	x14,0(x13)
    800000d4:	02f05863          	bge	x0,x15,80000104 <f2+0x60>
    800000d8:	ff010113          	addi	x2,x2,-16
    800000dc:	00113423          	sd	x1,8(x2)
    800000e0:	00078513          	addi	x10,x15,0
    800000e4:	0015859b          	addiw	x11,x11,1
    800000e8:	00000797          	auipc	x15,0x0
    800000ec:	1b07b783          	ld	x15,432(x15) # 80000298 <func+0x8>
    800000f0:	000780e7          	jalr	x1,0(x15)
    800000f4:	00813083          	ld	x1,8(x2)
    800000f8:	0095051b          	addiw	x10,x10,9
    800000fc:	01010113          	addi	x2,x2,16
    80000100:	00008067          	jalr	x0,0(x1)
    80000104:	00008067          	jalr	x0,0(x1)

0000000080000108 <f3>:
    80000108:	00000717          	auipc	x14,0x0
    8000010c:	1a870713          	addi	x14,x14,424 # 800002b0 <lvl>
    80000110:	00072683          	lw	x13,0(x14)
    80000114:	00050793          	addi	x15,x10,0
    80000118:	00b6d463          	bge	x13,x11,80000120 <f3+0x18>
    8000011c:	00b72023          	sw	x11,0(x14)
    80000120:	00000697          	auipc	x13,0x0
    80000124:	19468693          	addi	x13,x13,404 # 800002b4 <rec>
    80000128:	0006a703          	lw	x14,0(x13)
    8000012c:	00100513          	addi	x10,x0,1
    80000130:	0017071b          	addiw	x14,x14,1
    80000134:	00e6a023          	sw	x14,0(x13)
    80000138:	06f05a63          	bge	x0,x15,800001ac <f3+0xa4>
    8000013c:	fe010113          	addi	x2,x2,-32
    80000140:	01213023          	sd	x18,0(x2)
    80000144:	00000917          	auipc	x18,0x0
    80000148:	14c90913          	addi	x18,x18,332 # 80000290 <func>
    8000014c:	01093703          	ld	x14,16(x18)
    80000150:	00813823          	sd	x8,16(x2)
    80000154:	00913423          	sd	x9,8(x2)
    80000158:	0015841b          	addiw	x8,x11,1
    8000015c:	4017d493          	srai	x9,x15,0x1
    80000160:	00113c23          	sd	x1,24(x2)
    80000164:	00040593          	addi	x11,x8,0
    80000168:	00048513          	addi	x10,x9,0
    8000016c:	000700e7          	jalr	x1,0(x14)
    80000170:	01093783          	ld	x15,16(x18)
    80000174:	00040593          	addi	x11,x8,0
    80000178:	00050913          	addi	x18,x10,0
    8000017c:	00048513          	addi	x10,x9,0
    80000180:	000780e7          	jalr	x1,0(x15)
    80000184:	01813083          	ld	x1,24(x2)
    80000188:	01013403          	ld	x8,16(x2)
    8000018c:	0019179b          	slliw	x15,x18,0x1
    80000190:	012787bb          	addw	x15,x15,x18
    80000194:	0015151b          	slliw	x10,x10,0x1
    80000198:	00813483          	ld	x9,8(x2)
    8000019c:	00013903          	ld	x18,0(x2)
    800001a0:	00a7853b          	addw	x10,x15,x10
    800001a4:	02010113          	addi	x2,x2,32
    800001a8:	00008067          	jalr	x0,0(x1)
    800001ac:	00008067          	jalr	x0,0(x1)

00000000800001b0 <check>:
    800001b0:	00050463          	beq	x10,x0,800001b8 <check+0x8>
    800001b4:	00008067          	jalr	x0,0(x1)
    800001b8:	ff010113          	addi	x2,x2,-16
    800001bc:	00100513          	addi	x10,x0,1
    800001c0:	00113423          	sd	x1,8(x2)
    800001c4:	084000ef          	jal	x1,80000248 <halt>

00000000800001c8 <main>:
    800001c8:	ff010113          	addi	x2,x2,-16
    800001cc:	00004537          	lui	x10,0x4
    800001d0:	00113423          	sd	x1,8(x2)
    800001d4:	00813023          	sd	x8,0(x2)
    800001d8:	00000593          	addi	x11,x0,0
    800001dc:	00000797          	auipc	x15,0x0
    800001e0:	0b47b783          	ld	x15,180(x15) # 80000290 <func>
    800001e4:	82350513          	addi	x10,x10,-2013 # 3823 <_entry_offset+0x3823>
    800001e8:	000780e7          	jalr	x1,0(x15)
    800001ec:	00000417          	auipc	x8,0x0
    800001f0:	09440413          	addi	x8,x8,148 # 80000280 <ans>
    800001f4:	00042783          	lw	x15,0(x8)
    800001f8:	40a78533          	sub	x10,x15,x10
    800001fc:	00153513          	sltiu	x10,x10,1
    80000200:	fb1ff0ef          	jal	x1,800001b0 <check>
    80000204:	00442503          	lw	x10,4(x8)
    80000208:	00000797          	auipc	x15,0x0
    8000020c:	0ac7a783          	lw	x15,172(x15) # 800002b4 <rec>
    80000210:	40f50533          	sub	x10,x10,x15
    80000214:	00153513          	sltiu	x10,x10,1
    80000218:	f99ff0ef          	jal	x1,800001b0 <check>
    8000021c:	00842503          	lw	x10,8(x8)
    80000220:	00000797          	auipc	x15,0x0
    80000224:	0907a783          	lw	x15,144(x15) # 800002b0 <lvl>
    80000228:	40f50533          	sub	x10,x10,x15
    8000022c:	00153513          	sltiu	x10,x10,1
    80000230:	f81ff0ef          	jal	x1,800001b0 <check>
    80000234:	00813083          	ld	x1,8(x2)
    80000238:	00013403          	ld	x8,0(x2)
    8000023c:	00000513          	addi	x10,x0,0
    80000240:	01010113          	addi	x2,x2,16
    80000244:	00008067          	jalr	x0,0(x1)

0000000080000248 <halt>:
    80000248:	00050513          	addi	x10,x10,0
    8000024c:	00100073          	ebreak
    80000250:	0000006f          	jal	x0,80000250 <halt+0x8>

0000000080000254 <_trm_init>:
    80000254:	ff010113          	addi	x2,x2,-16
    80000258:	00000517          	auipc	x10,0x0
    8000025c:	02050513          	addi	x10,x10,32 # 80000278 <mainargs>
    80000260:	00113423          	sd	x1,8(x2)
    80000264:	f65ff0ef          	jal	x1,800001c8 <main>
    80000268:	00050513          	addi	x10,x10,0
    8000026c:	00100073          	ebreak
    80000270:	0000006f          	jal	x0,80000270 <_trm_init+0x1c>
