
elf/am-tests/select-sort:     file format elf64-littleriscv


Disassembly of section .text:

0000000080000000 <_start>:
    80000000:	00000413          	addi	x8,x0,0
    80000004:	00009117          	auipc	x2,0x9
    80000008:	ffc10113          	addi	x2,x2,-4 # 80009000 <_end>
    8000000c:	138000ef          	jal	x1,80000144 <_trm_init>

0000000080000010 <check>:
    80000010:	00050463          	beq	x10,x0,80000018 <check+0x8>
    80000014:	00008067          	jalr	x0,0(x1)
    80000018:	ff010113          	addi	x2,x2,-16
    8000001c:	00100513          	addi	x10,x0,1
    80000020:	00113423          	sd	x1,8(x2)
    80000024:	114000ef          	jal	x1,80000138 <halt>

0000000080000028 <select_sort>:
    80000028:	00000897          	auipc	x17,0x0
    8000002c:	14c88893          	addi	x17,x17,332 # 80000174 <a+0x4>
    80000030:	00000813          	addi	x16,x0,0
    80000034:	00000e97          	auipc	x29,0x0
    80000038:	13ce8e93          	addi	x29,x29,316 # 80000170 <a>
    8000003c:	01400513          	addi	x10,x0,20
    80000040:	01300e13          	addi	x28,x0,19
    80000044:	ffc8a303          	lw	x6,-4(x17)
    80000048:	00080593          	addi	x11,x16,0
    8000004c:	0018081b          	addiw	x16,x16,1
    80000050:	00088713          	addi	x14,x17,0
    80000054:	00030613          	addi	x12,x6,0
    80000058:	00080793          	addi	x15,x16,0
    8000005c:	00072683          	lw	x13,0(x14)
    80000060:	00470713          	addi	x14,x14,4
    80000064:	00c6d663          	bge	x13,x12,80000070 <select_sort+0x48>
    80000068:	00078593          	addi	x11,x15,0
    8000006c:	00068613          	addi	x12,x13,0
    80000070:	0017879b          	addiw	x15,x15,1
    80000074:	fea794e3          	bne	x15,x10,8000005c <select_sort+0x34>
    80000078:	00259593          	slli	x11,x11,0x2
    8000007c:	fec8ae23          	sw	x12,-4(x17)
    80000080:	00be85b3          	add	x11,x29,x11
    80000084:	0065a023          	sw	x6,0(x11)
    80000088:	00488893          	addi	x17,x17,4
    8000008c:	fbc81ce3          	bne	x16,x28,80000044 <select_sort+0x1c>
    80000090:	00008067          	jalr	x0,0(x1)

0000000080000094 <main>:
    80000094:	fd010113          	addi	x2,x2,-48
    80000098:	00913c23          	sd	x9,24(x2)
    8000009c:	00000497          	auipc	x9,0x0
    800000a0:	0d448493          	addi	x9,x9,212 # 80000170 <a>
    800000a4:	02813023          	sd	x8,32(x2)
    800000a8:	01213823          	sd	x18,16(x2)
    800000ac:	01313423          	sd	x19,8(x2)
    800000b0:	02113423          	sd	x1,40(x2)
    800000b4:	00048913          	addi	x18,x9,0
    800000b8:	f71ff0ef          	jal	x1,80000028 <select_sort>
    800000bc:	00000413          	addi	x8,x0,0
    800000c0:	01400993          	addi	x19,x0,20
    800000c4:	00092503          	lw	x10,0(x18)
    800000c8:	00490913          	addi	x18,x18,4
    800000cc:	40850533          	sub	x10,x10,x8
    800000d0:	00153513          	sltiu	x10,x10,1
    800000d4:	0014041b          	addiw	x8,x8,1
    800000d8:	f39ff0ef          	jal	x1,80000010 <check>
    800000dc:	ff3414e3          	bne	x8,x19,800000c4 <main+0x30>
    800000e0:	00100513          	addi	x10,x0,1
    800000e4:	f2dff0ef          	jal	x1,80000010 <check>
    800000e8:	00000413          	addi	x8,x0,0
    800000ec:	f3dff0ef          	jal	x1,80000028 <select_sort>
    800000f0:	01400913          	addi	x18,x0,20
    800000f4:	0004a503          	lw	x10,0(x9)
    800000f8:	00448493          	addi	x9,x9,4
    800000fc:	40850533          	sub	x10,x10,x8
    80000100:	00153513          	sltiu	x10,x10,1
    80000104:	0014041b          	addiw	x8,x8,1
    80000108:	f09ff0ef          	jal	x1,80000010 <check>
    8000010c:	ff2414e3          	bne	x8,x18,800000f4 <main+0x60>
    80000110:	00100513          	addi	x10,x0,1
    80000114:	efdff0ef          	jal	x1,80000010 <check>
    80000118:	02813083          	ld	x1,40(x2)
    8000011c:	02013403          	ld	x8,32(x2)
    80000120:	01813483          	ld	x9,24(x2)
    80000124:	01013903          	ld	x18,16(x2)
    80000128:	00813983          	ld	x19,8(x2)
    8000012c:	00000513          	addi	x10,x0,0
    80000130:	03010113          	addi	x2,x2,48
    80000134:	00008067          	jalr	x0,0(x1)

0000000080000138 <halt>:
    80000138:	00050513          	addi	x10,x10,0
    8000013c:	00100073          	ebreak
    80000140:	0000006f          	jal	x0,80000140 <halt+0x8>

0000000080000144 <_trm_init>:
    80000144:	ff010113          	addi	x2,x2,-16
    80000148:	00000517          	auipc	x10,0x0
    8000014c:	02050513          	addi	x10,x10,32 # 80000168 <mainargs>
    80000150:	00113423          	sd	x1,8(x2)
    80000154:	f41ff0ef          	jal	x1,80000094 <main>
    80000158:	00050513          	addi	x10,x10,0
    8000015c:	00100073          	ebreak
    80000160:	0000006f          	jal	x0,80000160 <_trm_init+0x1c>
