
elf/am-tests/shift:     file format elf64-littleriscv


Disassembly of section .text:

0000000080000000 <_start>:
    80000000:	00000413          	addi	x8,x0,0
    80000004:	00009117          	auipc	x2,0x9
    80000008:	ffc10113          	addi	x2,x2,-4 # 80009000 <_end>
    8000000c:	120000ef          	jal	x1,8000012c <_trm_init>

0000000080000010 <check>:
    80000010:	00050463          	beq	x10,x0,80000018 <check+0x8>
    80000014:	00008067          	jalr	x0,0(x1)
    80000018:	ff010113          	addi	x2,x2,-16
    8000001c:	00100513          	addi	x10,x0,1
    80000020:	00113423          	sd	x1,8(x2)
    80000024:	0fc000ef          	jal	x1,80000120 <halt>

0000000080000028 <main>:
    80000028:	fd010113          	addi	x2,x2,-48
    8000002c:	00913c23          	sd	x9,24(x2)
    80000030:	00000497          	auipc	x9,0x0
    80000034:	18848493          	addi	x9,x9,392 # 800001b8 <test>
    80000038:	02813023          	sd	x8,32(x2)
    8000003c:	01213823          	sd	x18,16(x2)
    80000040:	01313423          	sd	x19,8(x2)
    80000044:	02113423          	sd	x1,40(x2)
    80000048:	01413023          	sd	x20,0(x2)
    8000004c:	00000917          	auipc	x18,0x0
    80000050:	12c90913          	addi	x18,x18,300 # 80000178 <srl_ans>
    80000054:	00000997          	auipc	x19,0x0
    80000058:	18498993          	addi	x19,x19,388 # 800001d8 <_bss_start>
    8000005c:	00048413          	addi	x8,x9,0
    80000060:	00042503          	lw	x10,0(x8)
    80000064:	00092783          	lw	x15,0(x18)
    80000068:	00440413          	addi	x8,x8,4
    8000006c:	0075551b          	srliw	x10,x10,0x7
    80000070:	40f50533          	sub	x10,x10,x15
    80000074:	00153513          	sltiu	x10,x10,1
    80000078:	f99ff0ef          	jal	x1,80000010 <check>
    8000007c:	00490913          	addi	x18,x18,4
    80000080:	ff3410e3          	bne	x8,x19,80000060 <main+0x38>
    80000084:	00000997          	auipc	x19,0x0
    80000088:	0d498993          	addi	x19,x19,212 # 80000158 <srav_ans>
    8000008c:	00000917          	auipc	x18,0x0
    80000090:	12c90913          	addi	x18,x18,300 # 800001b8 <test>
    80000094:	00400413          	addi	x8,x0,4
    80000098:	00c00a13          	addi	x20,x0,12
    8000009c:	00092503          	lw	x10,0(x18)
    800000a0:	0009a783          	lw	x15,0(x19)
    800000a4:	00490913          	addi	x18,x18,4
    800000a8:	4085553b          	sraw	x10,x10,x8
    800000ac:	40f50533          	sub	x10,x10,x15
    800000b0:	00153513          	sltiu	x10,x10,1
    800000b4:	0014041b          	addiw	x8,x8,1
    800000b8:	f59ff0ef          	jal	x1,80000010 <check>
    800000bc:	00498993          	addi	x19,x19,4
    800000c0:	fd441ee3          	bne	x8,x20,8000009c <main+0x74>
    800000c4:	00000917          	auipc	x18,0x0
    800000c8:	0d490913          	addi	x18,x18,212 # 80000198 <srlv_ans>
    800000cc:	00400413          	addi	x8,x0,4
    800000d0:	00c00993          	addi	x19,x0,12
    800000d4:	0004a503          	lw	x10,0(x9)
    800000d8:	00092783          	lw	x15,0(x18)
    800000dc:	00448493          	addi	x9,x9,4
    800000e0:	0085553b          	srlw	x10,x10,x8
    800000e4:	40f50533          	sub	x10,x10,x15
    800000e8:	00153513          	sltiu	x10,x10,1
    800000ec:	0014041b          	addiw	x8,x8,1
    800000f0:	f21ff0ef          	jal	x1,80000010 <check>
    800000f4:	00490913          	addi	x18,x18,4
    800000f8:	fd341ee3          	bne	x8,x19,800000d4 <main+0xac>
    800000fc:	02813083          	ld	x1,40(x2)
    80000100:	02013403          	ld	x8,32(x2)
    80000104:	01813483          	ld	x9,24(x2)
    80000108:	01013903          	ld	x18,16(x2)
    8000010c:	00813983          	ld	x19,8(x2)
    80000110:	00013a03          	ld	x20,0(x2)
    80000114:	00000513          	addi	x10,x0,0
    80000118:	03010113          	addi	x2,x2,48
    8000011c:	00008067          	jalr	x0,0(x1)

0000000080000120 <halt>:
    80000120:	00050513          	addi	x10,x10,0
    80000124:	00100073          	ebreak
    80000128:	0000006f          	jal	x0,80000128 <halt+0x8>

000000008000012c <_trm_init>:
    8000012c:	ff010113          	addi	x2,x2,-16
    80000130:	00000517          	auipc	x10,0x0
    80000134:	02050513          	addi	x10,x10,32 # 80000150 <mainargs>
    80000138:	00113423          	sd	x1,8(x2)
    8000013c:	eedff0ef          	jal	x1,80000028 <main>
    80000140:	00050513          	addi	x10,x10,0
    80000144:	00100073          	ebreak
    80000148:	0000006f          	jal	x0,80000148 <_trm_init+0x1c>
