
elf/am-tests/shuixianhua:     file format elf64-littleriscv


Disassembly of section .text:

0000000080000000 <_start>:
    80000000:	00000413          	addi	x8,x0,0
    80000004:	00009117          	auipc	x2,0x9
    80000008:	ffc10113          	addi	x2,x2,-4 # 80009000 <_end>
    8000000c:	100000ef          	jal	x1,8000010c <_trm_init>

0000000080000010 <check>:
    80000010:	00050463          	beq	x10,x0,80000018 <check+0x8>
    80000014:	00008067          	jalr	x0,0(x1)
    80000018:	ff010113          	addi	x2,x2,-16
    8000001c:	00100513          	addi	x10,x0,1
    80000020:	00113423          	sd	x1,8(x2)
    80000024:	0dc000ef          	jal	x1,80000100 <halt>

0000000080000028 <main>:
    80000028:	fc010113          	addi	x2,x2,-64
    8000002c:	02813823          	sd	x8,48(x2)
    80000030:	02913423          	sd	x9,40(x2)
    80000034:	03213023          	sd	x18,32(x2)
    80000038:	01313c23          	sd	x19,24(x2)
    8000003c:	01413823          	sd	x20,16(x2)
    80000040:	01513423          	sd	x21,8(x2)
    80000044:	02113c23          	sd	x1,56(x2)
    80000048:	06400413          	addi	x8,x0,100
    8000004c:	00000a93          	addi	x21,x0,0
    80000050:	1f400993          	addi	x19,x0,500
    80000054:	06400a13          	addi	x20,x0,100
    80000058:	00a00913          	addi	x18,x0,10
    8000005c:	00000497          	auipc	x9,0x0
    80000060:	0dc48493          	addi	x9,x9,220 # 80000138 <ans>
    80000064:	0014041b          	addiw	x8,x8,1
    80000068:	00040793          	addi	x15,x8,0
    8000006c:	07340063          	beq	x8,x19,800000cc <main+0xa4>
    80000070:	0327c6bb          	divw	x13,x15,x18
    80000074:	0347c53b          	divw	x10,x15,x20
    80000078:	0326e6bb          	remw	x13,x13,x18
    8000007c:	0327e7bb          	remw	x15,x15,x18
    80000080:	02d6873b          	mulw	x14,x13,x13
    80000084:	02a505bb          	mulw	x11,x10,x10
    80000088:	02f7863b          	mulw	x12,x15,x15
    8000008c:	02d7073b          	mulw	x14,x14,x13
    80000090:	02a585bb          	mulw	x11,x11,x10
    80000094:	02f606bb          	mulw	x13,x12,x15
    80000098:	00b707bb          	addw	x15,x14,x11
    8000009c:	00d787bb          	addw	x15,x15,x13
    800000a0:	fc8792e3          	bne	x15,x8,80000064 <main+0x3c>
    800000a4:	002a9793          	slli	x15,x21,0x2
    800000a8:	00f487b3          	add	x15,x9,x15
    800000ac:	0007a503          	lw	x10,0(x15)
    800000b0:	001a8a9b          	addiw	x21,x21,1
    800000b4:	40850533          	sub	x10,x10,x8
    800000b8:	00153513          	sltiu	x10,x10,1
    800000bc:	f55ff0ef          	jal	x1,80000010 <check>
    800000c0:	0014041b          	addiw	x8,x8,1
    800000c4:	00040793          	addi	x15,x8,0
    800000c8:	fb3414e3          	bne	x8,x19,80000070 <main+0x48>
    800000cc:	ffca8513          	addi	x10,x21,-4
    800000d0:	00153513          	sltiu	x10,x10,1
    800000d4:	f3dff0ef          	jal	x1,80000010 <check>
    800000d8:	03813083          	ld	x1,56(x2)
    800000dc:	03013403          	ld	x8,48(x2)
    800000e0:	02813483          	ld	x9,40(x2)
    800000e4:	02013903          	ld	x18,32(x2)
    800000e8:	01813983          	ld	x19,24(x2)
    800000ec:	01013a03          	ld	x20,16(x2)
    800000f0:	00813a83          	ld	x21,8(x2)
    800000f4:	00000513          	addi	x10,x0,0
    800000f8:	04010113          	addi	x2,x2,64
    800000fc:	00008067          	jalr	x0,0(x1)

0000000080000100 <halt>:
    80000100:	00050513          	addi	x10,x10,0
    80000104:	00100073          	ebreak
    80000108:	0000006f          	jal	x0,80000108 <halt+0x8>

000000008000010c <_trm_init>:
    8000010c:	ff010113          	addi	x2,x2,-16
    80000110:	00000517          	auipc	x10,0x0
    80000114:	02050513          	addi	x10,x10,32 # 80000130 <mainargs>
    80000118:	00113423          	sd	x1,8(x2)
    8000011c:	f0dff0ef          	jal	x1,80000028 <main>
    80000120:	00050513          	addi	x10,x10,0
    80000124:	00100073          	ebreak
    80000128:	0000006f          	jal	x0,80000128 <_trm_init+0x1c>
