
elf/am-tests/sub-longlong:     file format elf64-littleriscv


Disassembly of section .text:

0000000080000000 <_start>:
    80000000:	00000413          	addi	x8,x0,0
    80000004:	00009117          	auipc	x2,0x9
    80000008:	ffc10113          	addi	x2,x2,-4 # 80009000 <_end>
    8000000c:	0ec000ef          	jal	x1,800000f8 <_trm_init>

0000000080000010 <check>:
    80000010:	00050463          	beq	x10,x0,80000018 <check+0x8>
    80000014:	00008067          	jalr	x0,0(x1)
    80000018:	ff010113          	addi	x2,x2,-16
    8000001c:	00100513          	addi	x10,x0,1
    80000020:	00113423          	sd	x1,8(x2)
    80000024:	0c8000ef          	jal	x1,800000ec <halt>

0000000080000028 <main>:
    80000028:	fb010113          	addi	x2,x2,-80
    8000002c:	01713423          	sd	x23,8(x2)
    80000030:	00000b97          	auipc	x23,0x0
    80000034:	2f0b8b93          	addi	x23,x23,752 # 80000320 <test_data>
    80000038:	03313423          	sd	x19,40(x2)
    8000003c:	03413023          	sd	x20,32(x2)
    80000040:	01513c23          	sd	x21,24(x2)
    80000044:	01613823          	sd	x22,16(x2)
    80000048:	01813023          	sd	x24,0(x2)
    8000004c:	04113423          	sd	x1,72(x2)
    80000050:	04813023          	sd	x8,64(x2)
    80000054:	02913c23          	sd	x9,56(x2)
    80000058:	03213823          	sd	x18,48(x2)
    8000005c:	00000b17          	auipc	x22,0x0
    80000060:	0c4b0b13          	addi	x22,x22,196 # 80000120 <ans>
    80000064:	000b8a93          	addi	x21,x23,0
    80000068:	00000a13          	addi	x20,x0,0
    8000006c:	00000997          	auipc	x19,0x0
    80000070:	2f498993          	addi	x19,x19,756 # 80000360 <_bss_start>
    80000074:	04000c13          	addi	x24,x0,64
    80000078:	000ab903          	ld	x18,0(x21)
    8000007c:	000b0493          	addi	x9,x22,0
    80000080:	000b8413          	addi	x8,x23,0
    80000084:	00043503          	ld	x10,0(x8)
    80000088:	0004b783          	ld	x15,0(x9)
    8000008c:	00840413          	addi	x8,x8,8
    80000090:	40a90533          	sub	x10,x18,x10
    80000094:	40f50533          	sub	x10,x10,x15
    80000098:	00153513          	sltiu	x10,x10,1
    8000009c:	f75ff0ef          	jal	x1,80000010 <check>
    800000a0:	00848493          	addi	x9,x9,8
    800000a4:	fe8990e3          	bne	x19,x8,80000084 <main+0x5c>
    800000a8:	008a0a1b          	addiw	x20,x20,8
    800000ac:	008a8a93          	addi	x21,x21,8
    800000b0:	040b0b13          	addi	x22,x22,64
    800000b4:	fd8a12e3          	bne	x20,x24,80000078 <main+0x50>
    800000b8:	04813083          	ld	x1,72(x2)
    800000bc:	04013403          	ld	x8,64(x2)
    800000c0:	03813483          	ld	x9,56(x2)
    800000c4:	03013903          	ld	x18,48(x2)
    800000c8:	02813983          	ld	x19,40(x2)
    800000cc:	02013a03          	ld	x20,32(x2)
    800000d0:	01813a83          	ld	x21,24(x2)
    800000d4:	01013b03          	ld	x22,16(x2)
    800000d8:	00813b83          	ld	x23,8(x2)
    800000dc:	00013c03          	ld	x24,0(x2)
    800000e0:	00000513          	addi	x10,x0,0
    800000e4:	05010113          	addi	x2,x2,80
    800000e8:	00008067          	jalr	x0,0(x1)

00000000800000ec <halt>:
    800000ec:	00050513          	addi	x10,x10,0
    800000f0:	00100073          	ebreak
    800000f4:	0000006f          	jal	x0,800000f4 <halt+0x8>

00000000800000f8 <_trm_init>:
    800000f8:	ff010113          	addi	x2,x2,-16
    800000fc:	00000517          	auipc	x10,0x0
    80000100:	01c50513          	addi	x10,x10,28 # 80000118 <_etext>
    80000104:	00113423          	sd	x1,8(x2)
    80000108:	f21ff0ef          	jal	x1,80000028 <main>
    8000010c:	00050513          	addi	x10,x10,0
    80000110:	00100073          	ebreak
    80000114:	0000006f          	jal	x0,80000114 <_trm_init+0x1c>
