
elf/riscv-tests/rv64ui/rv64ui-p-lwu:     file format elf64-littleriscv


Disassembly of section .text.init:

0000000080000000 <_start>:
    80000000:	0500006f          	jal	x0,80000050 <reset_vector>

0000000080000004 <trap_vector>:
    80000004:	34202f73          	csrrs	x30,mcause,x0
    80000008:	00800f93          	addi	x31,x0,8
    8000000c:	03ff0863          	beq	x30,x31,8000003c <write_tohost>
    80000010:	00900f93          	addi	x31,x0,9
    80000014:	03ff0463          	beq	x30,x31,8000003c <write_tohost>
    80000018:	00b00f93          	addi	x31,x0,11
    8000001c:	03ff0063          	beq	x30,x31,8000003c <write_tohost>
    80000020:	00000f13          	addi	x30,x0,0
    80000024:	000f0463          	beq	x30,x0,8000002c <trap_vector+0x28>
    80000028:	000f0067          	jalr	x0,0(x30)
    8000002c:	34202f73          	csrrs	x30,mcause,x0
    80000030:	000f5463          	bge	x30,x0,80000038 <handle_exception>
    80000034:	0040006f          	jal	x0,80000038 <handle_exception>

0000000080000038 <handle_exception>:
    80000038:	5391e193          	ori	x3,x3,1337

000000008000003c <write_tohost>:
    8000003c:	00001f17          	auipc	x30,0x1
    80000040:	fc3f2223          	sw	x3,-60(x30) # 80001000 <tohost>
    80000044:	00001f17          	auipc	x30,0x1
    80000048:	fc0f2023          	sw	x0,-64(x30) # 80001004 <tohost+0x4>
    8000004c:	ff1ff06f          	jal	x0,8000003c <write_tohost>

0000000080000050 <reset_vector>:
    80000050:	00000093          	addi	x1,x0,0
    80000054:	00000113          	addi	x2,x0,0
    80000058:	00000193          	addi	x3,x0,0
    8000005c:	00000213          	addi	x4,x0,0
    80000060:	00000293          	addi	x5,x0,0
    80000064:	00000313          	addi	x6,x0,0
    80000068:	00000393          	addi	x7,x0,0
    8000006c:	00000413          	addi	x8,x0,0
    80000070:	00000493          	addi	x9,x0,0
    80000074:	00000513          	addi	x10,x0,0
    80000078:	00000593          	addi	x11,x0,0
    8000007c:	00000613          	addi	x12,x0,0
    80000080:	00000693          	addi	x13,x0,0
    80000084:	00000713          	addi	x14,x0,0
    80000088:	00000793          	addi	x15,x0,0
    8000008c:	00000813          	addi	x16,x0,0
    80000090:	00000893          	addi	x17,x0,0
    80000094:	00000913          	addi	x18,x0,0
    80000098:	00000993          	addi	x19,x0,0
    8000009c:	00000a13          	addi	x20,x0,0
    800000a0:	00000a93          	addi	x21,x0,0
    800000a4:	00000b13          	addi	x22,x0,0
    800000a8:	00000b93          	addi	x23,x0,0
    800000ac:	00000c13          	addi	x24,x0,0
    800000b0:	00000c93          	addi	x25,x0,0
    800000b4:	00000d13          	addi	x26,x0,0
    800000b8:	00000d93          	addi	x27,x0,0
    800000bc:	00000e13          	addi	x28,x0,0
    800000c0:	00000e93          	addi	x29,x0,0
    800000c4:	00000f13          	addi	x30,x0,0
    800000c8:	00000f93          	addi	x31,x0,0
    800000cc:	f1402573          	csrrs	x10,mhartid,x0
    800000d0:	00051063          	bne	x10,x0,800000d0 <reset_vector+0x80>
    800000d4:	00000297          	auipc	x5,0x0
    800000d8:	01028293          	addi	x5,x5,16 # 800000e4 <reset_vector+0x94>
    800000dc:	30529073          	csrrw	x0,mtvec,x5
    800000e0:	74445073          	csrrwi	x0,0x744,8
    800000e4:	00000297          	auipc	x5,0x0
    800000e8:	01028293          	addi	x5,x5,16 # 800000f4 <reset_vector+0xa4>
    800000ec:	30529073          	csrrw	x0,mtvec,x5
    800000f0:	18005073          	csrrwi	x0,satp,0
    800000f4:	00000297          	auipc	x5,0x0
    800000f8:	02428293          	addi	x5,x5,36 # 80000118 <reset_vector+0xc8>
    800000fc:	30529073          	csrrw	x0,mtvec,x5
    80000100:	0010029b          	addiw	x5,x0,1
    80000104:	03529293          	slli	x5,x5,0x35
    80000108:	fff28293          	addi	x5,x5,-1
    8000010c:	3b029073          	csrrw	x0,pmpaddr0,x5
    80000110:	01f00293          	addi	x5,x0,31
    80000114:	3a029073          	csrrw	x0,pmpcfg0,x5
    80000118:	30405073          	csrrwi	x0,mie,0
    8000011c:	00000297          	auipc	x5,0x0
    80000120:	01428293          	addi	x5,x5,20 # 80000130 <reset_vector+0xe0>
    80000124:	30529073          	csrrw	x0,mtvec,x5
    80000128:	30205073          	csrrwi	x0,medeleg,0
    8000012c:	30305073          	csrrwi	x0,mideleg,0
    80000130:	00000193          	addi	x3,x0,0
    80000134:	00000297          	auipc	x5,0x0
    80000138:	ed028293          	addi	x5,x5,-304 # 80000004 <trap_vector>
    8000013c:	30529073          	csrrw	x0,mtvec,x5
    80000140:	00100513          	addi	x10,x0,1
    80000144:	01f51513          	slli	x10,x10,0x1f
    80000148:	00055c63          	bge	x10,x0,80000160 <reset_vector+0x110>
    8000014c:	0ff0000f          	fence	iorw,iorw
    80000150:	00100193          	addi	x3,x0,1
    80000154:	05d00893          	addi	x17,x0,93
    80000158:	00000513          	addi	x10,x0,0
    8000015c:	00000073          	ecall
    80000160:	00000293          	addi	x5,x0,0
    80000164:	00028a63          	beq	x5,x0,80000178 <reset_vector+0x128>
    80000168:	10529073          	csrrw	x0,stvec,x5
    8000016c:	0000b2b7          	lui	x5,0xb
    80000170:	1092829b          	addiw	x5,x5,265 # b109 <_start-0x7fff4ef7>
    80000174:	30229073          	csrrw	x0,medeleg,x5
    80000178:	30005073          	csrrwi	x0,mstatus,0
    8000017c:	00000297          	auipc	x5,0x0
    80000180:	01428293          	addi	x5,x5,20 # 80000190 <test_2>
    80000184:	34129073          	csrrw	x0,mepc,x5
    80000188:	f1402573          	csrrs	x10,mhartid,x0
    8000018c:	30200073          	mret

0000000080000190 <test_2>:
    80000190:	00200193          	addi	x3,x0,2
    80000194:	00ff07b7          	lui	x15,0xff0
    80000198:	0ff7879b          	addiw	x15,x15,255 # ff00ff <_start-0x7f00ff01>
    8000019c:	00002097          	auipc	x1,0x2
    800001a0:	e6408093          	addi	x1,x1,-412 # 80002000 <begin_signature>
    800001a4:	0000e703          	lwu	x14,0(x1)
    800001a8:	00ff03b7          	lui	x7,0xff0
    800001ac:	0ff3839b          	addiw	x7,x7,255 # ff00ff <_start-0x7f00ff01>
    800001b0:	30771a63          	bne	x14,x7,800004c4 <fail>

00000000800001b4 <test_3>:
    800001b4:	00300193          	addi	x3,x0,3
    800001b8:	000107b7          	lui	x15,0x10
    800001bc:	f017879b          	addiw	x15,x15,-255 # ff01 <_start-0x7fff00ff>
    800001c0:	01079793          	slli	x15,x15,0x10
    800001c4:	f0078793          	addi	x15,x15,-256
    800001c8:	00002097          	auipc	x1,0x2
    800001cc:	e3808093          	addi	x1,x1,-456 # 80002000 <begin_signature>
    800001d0:	0040e703          	lwu	x14,4(x1)
    800001d4:	000103b7          	lui	x7,0x10
    800001d8:	f013839b          	addiw	x7,x7,-255 # ff01 <_start-0x7fff00ff>
    800001dc:	01039393          	slli	x7,x7,0x10
    800001e0:	f0038393          	addi	x7,x7,-256
    800001e4:	2e771063          	bne	x14,x7,800004c4 <fail>

00000000800001e8 <test_4>:
    800001e8:	00400193          	addi	x3,x0,4
    800001ec:	0ff017b7          	lui	x15,0xff01
    800001f0:	ff07879b          	addiw	x15,x15,-16 # ff00ff0 <_start-0x700ff010>
    800001f4:	00002097          	auipc	x1,0x2
    800001f8:	e0c08093          	addi	x1,x1,-500 # 80002000 <begin_signature>
    800001fc:	0080e703          	lwu	x14,8(x1)
    80000200:	0ff013b7          	lui	x7,0xff01
    80000204:	ff03839b          	addiw	x7,x7,-16 # ff00ff0 <_start-0x700ff010>
    80000208:	2a771e63          	bne	x14,x7,800004c4 <fail>

000000008000020c <test_5>:
    8000020c:	00500193          	addi	x3,x0,5
    80000210:	000f07b7          	lui	x15,0xf0
    80000214:	0ff7879b          	addiw	x15,x15,255 # f00ff <_start-0x7ff0ff01>
    80000218:	00c79793          	slli	x15,x15,0xc
    8000021c:	00f78793          	addi	x15,x15,15
    80000220:	00002097          	auipc	x1,0x2
    80000224:	de008093          	addi	x1,x1,-544 # 80002000 <begin_signature>
    80000228:	00c0e703          	lwu	x14,12(x1)
    8000022c:	000f03b7          	lui	x7,0xf0
    80000230:	0ff3839b          	addiw	x7,x7,255 # f00ff <_start-0x7ff0ff01>
    80000234:	00c39393          	slli	x7,x7,0xc
    80000238:	00f38393          	addi	x7,x7,15
    8000023c:	28771463          	bne	x14,x7,800004c4 <fail>

0000000080000240 <test_6>:
    80000240:	00600193          	addi	x3,x0,6
    80000244:	00ff07b7          	lui	x15,0xff0
    80000248:	0ff7879b          	addiw	x15,x15,255 # ff00ff <_start-0x7f00ff01>
    8000024c:	00002097          	auipc	x1,0x2
    80000250:	dc008093          	addi	x1,x1,-576 # 8000200c <tdat4>
    80000254:	ff40e703          	lwu	x14,-12(x1)
    80000258:	00ff03b7          	lui	x7,0xff0
    8000025c:	0ff3839b          	addiw	x7,x7,255 # ff00ff <_start-0x7f00ff01>
    80000260:	26771263          	bne	x14,x7,800004c4 <fail>

0000000080000264 <test_7>:
    80000264:	00700193          	addi	x3,x0,7
    80000268:	000107b7          	lui	x15,0x10
    8000026c:	f017879b          	addiw	x15,x15,-255 # ff01 <_start-0x7fff00ff>
    80000270:	01079793          	slli	x15,x15,0x10
    80000274:	f0078793          	addi	x15,x15,-256
    80000278:	00002097          	auipc	x1,0x2
    8000027c:	d9408093          	addi	x1,x1,-620 # 8000200c <tdat4>
    80000280:	ff80e703          	lwu	x14,-8(x1)
    80000284:	000103b7          	lui	x7,0x10
    80000288:	f013839b          	addiw	x7,x7,-255 # ff01 <_start-0x7fff00ff>
    8000028c:	01039393          	slli	x7,x7,0x10
    80000290:	f0038393          	addi	x7,x7,-256
    80000294:	22771863          	bne	x14,x7,800004c4 <fail>

0000000080000298 <test_8>:
    80000298:	00800193          	addi	x3,x0,8
    8000029c:	0ff017b7          	lui	x15,0xff01
    800002a0:	ff07879b          	addiw	x15,x15,-16 # ff00ff0 <_start-0x700ff010>
    800002a4:	00002097          	auipc	x1,0x2
    800002a8:	d6808093          	addi	x1,x1,-664 # 8000200c <tdat4>
    800002ac:	ffc0e703          	lwu	x14,-4(x1)
    800002b0:	0ff013b7          	lui	x7,0xff01
    800002b4:	ff03839b          	addiw	x7,x7,-16 # ff00ff0 <_start-0x700ff010>
    800002b8:	20771663          	bne	x14,x7,800004c4 <fail>

00000000800002bc <test_9>:
    800002bc:	00900193          	addi	x3,x0,9
    800002c0:	000f07b7          	lui	x15,0xf0
    800002c4:	0ff7879b          	addiw	x15,x15,255 # f00ff <_start-0x7ff0ff01>
    800002c8:	00c79793          	slli	x15,x15,0xc
    800002cc:	00f78793          	addi	x15,x15,15
    800002d0:	00002097          	auipc	x1,0x2
    800002d4:	d3c08093          	addi	x1,x1,-708 # 8000200c <tdat4>
    800002d8:	0000e703          	lwu	x14,0(x1)
    800002dc:	000f03b7          	lui	x7,0xf0
    800002e0:	0ff3839b          	addiw	x7,x7,255 # f00ff <_start-0x7ff0ff01>
    800002e4:	00c39393          	slli	x7,x7,0xc
    800002e8:	00f38393          	addi	x7,x7,15
    800002ec:	1c771c63          	bne	x14,x7,800004c4 <fail>

00000000800002f0 <test_10>:
    800002f0:	00a00193          	addi	x3,x0,10
    800002f4:	00002097          	auipc	x1,0x2
    800002f8:	d0c08093          	addi	x1,x1,-756 # 80002000 <begin_signature>
    800002fc:	fe008093          	addi	x1,x1,-32
    80000300:	0200e283          	lwu	x5,32(x1)
    80000304:	00ff03b7          	lui	x7,0xff0
    80000308:	0ff3839b          	addiw	x7,x7,255 # ff00ff <_start-0x7f00ff01>
    8000030c:	1a729c63          	bne	x5,x7,800004c4 <fail>

0000000080000310 <test_11>:
    80000310:	00b00193          	addi	x3,x0,11
    80000314:	00002097          	auipc	x1,0x2
    80000318:	cec08093          	addi	x1,x1,-788 # 80002000 <begin_signature>
    8000031c:	ffd08093          	addi	x1,x1,-3
    80000320:	0070e283          	lwu	x5,7(x1)
    80000324:	000103b7          	lui	x7,0x10
    80000328:	f013839b          	addiw	x7,x7,-255 # ff01 <_start-0x7fff00ff>
    8000032c:	01039393          	slli	x7,x7,0x10
    80000330:	f0038393          	addi	x7,x7,-256
    80000334:	18729863          	bne	x5,x7,800004c4 <fail>

0000000080000338 <test_12>:
    80000338:	00c00193          	addi	x3,x0,12
    8000033c:	00000213          	addi	x4,x0,0
    80000340:	00002097          	auipc	x1,0x2
    80000344:	cc408093          	addi	x1,x1,-828 # 80002004 <tdat2>
    80000348:	0040e703          	lwu	x14,4(x1)
    8000034c:	00070313          	addi	x6,x14,0
    80000350:	0ff013b7          	lui	x7,0xff01
    80000354:	ff03839b          	addiw	x7,x7,-16 # ff00ff0 <_start-0x700ff010>
    80000358:	16731663          	bne	x6,x7,800004c4 <fail>
    8000035c:	00120213          	addi	x4,x4,1 # 1 <_start-0x7fffffff>
    80000360:	00200293          	addi	x5,x0,2
    80000364:	fc521ee3          	bne	x4,x5,80000340 <test_12+0x8>

0000000080000368 <test_13>:
    80000368:	00d00193          	addi	x3,x0,13
    8000036c:	00000213          	addi	x4,x0,0
    80000370:	00002097          	auipc	x1,0x2
    80000374:	c9808093          	addi	x1,x1,-872 # 80002008 <tdat3>
    80000378:	0040e703          	lwu	x14,4(x1)
    8000037c:	00000013          	addi	x0,x0,0
    80000380:	00070313          	addi	x6,x14,0
    80000384:	000f03b7          	lui	x7,0xf0
    80000388:	0ff3839b          	addiw	x7,x7,255 # f00ff <_start-0x7ff0ff01>
    8000038c:	00c39393          	slli	x7,x7,0xc
    80000390:	00f38393          	addi	x7,x7,15
    80000394:	12731863          	bne	x6,x7,800004c4 <fail>
    80000398:	00120213          	addi	x4,x4,1 # 1 <_start-0x7fffffff>
    8000039c:	00200293          	addi	x5,x0,2
    800003a0:	fc5218e3          	bne	x4,x5,80000370 <test_13+0x8>

00000000800003a4 <test_14>:
    800003a4:	00e00193          	addi	x3,x0,14
    800003a8:	00000213          	addi	x4,x0,0
    800003ac:	00002097          	auipc	x1,0x2
    800003b0:	c5408093          	addi	x1,x1,-940 # 80002000 <begin_signature>
    800003b4:	0040e703          	lwu	x14,4(x1)
    800003b8:	00000013          	addi	x0,x0,0
    800003bc:	00000013          	addi	x0,x0,0
    800003c0:	00070313          	addi	x6,x14,0
    800003c4:	000103b7          	lui	x7,0x10
    800003c8:	f013839b          	addiw	x7,x7,-255 # ff01 <_start-0x7fff00ff>
    800003cc:	01039393          	slli	x7,x7,0x10
    800003d0:	f0038393          	addi	x7,x7,-256
    800003d4:	0e731863          	bne	x6,x7,800004c4 <fail>
    800003d8:	00120213          	addi	x4,x4,1 # 1 <_start-0x7fffffff>
    800003dc:	00200293          	addi	x5,x0,2
    800003e0:	fc5216e3          	bne	x4,x5,800003ac <test_14+0x8>

00000000800003e4 <test_15>:
    800003e4:	00f00193          	addi	x3,x0,15
    800003e8:	00000213          	addi	x4,x0,0
    800003ec:	00002097          	auipc	x1,0x2
    800003f0:	c1808093          	addi	x1,x1,-1000 # 80002004 <tdat2>
    800003f4:	0040e703          	lwu	x14,4(x1)
    800003f8:	0ff013b7          	lui	x7,0xff01
    800003fc:	ff03839b          	addiw	x7,x7,-16 # ff00ff0 <_start-0x700ff010>
    80000400:	0c771263          	bne	x14,x7,800004c4 <fail>
    80000404:	00120213          	addi	x4,x4,1 # 1 <_start-0x7fffffff>
    80000408:	00200293          	addi	x5,x0,2
    8000040c:	fe5210e3          	bne	x4,x5,800003ec <test_15+0x8>

0000000080000410 <test_16>:
    80000410:	01000193          	addi	x3,x0,16
    80000414:	00000213          	addi	x4,x0,0
    80000418:	00002097          	auipc	x1,0x2
    8000041c:	bf008093          	addi	x1,x1,-1040 # 80002008 <tdat3>
    80000420:	00000013          	addi	x0,x0,0
    80000424:	0040e703          	lwu	x14,4(x1)
    80000428:	000f03b7          	lui	x7,0xf0
    8000042c:	0ff3839b          	addiw	x7,x7,255 # f00ff <_start-0x7ff0ff01>
    80000430:	00c39393          	slli	x7,x7,0xc
    80000434:	00f38393          	addi	x7,x7,15
    80000438:	08771663          	bne	x14,x7,800004c4 <fail>
    8000043c:	00120213          	addi	x4,x4,1 # 1 <_start-0x7fffffff>
    80000440:	00200293          	addi	x5,x0,2
    80000444:	fc521ae3          	bne	x4,x5,80000418 <test_16+0x8>

0000000080000448 <test_17>:
    80000448:	01100193          	addi	x3,x0,17
    8000044c:	00000213          	addi	x4,x0,0
    80000450:	00002097          	auipc	x1,0x2
    80000454:	bb008093          	addi	x1,x1,-1104 # 80002000 <begin_signature>
    80000458:	00000013          	addi	x0,x0,0
    8000045c:	00000013          	addi	x0,x0,0
    80000460:	0040e703          	lwu	x14,4(x1)
    80000464:	000103b7          	lui	x7,0x10
    80000468:	f013839b          	addiw	x7,x7,-255 # ff01 <_start-0x7fff00ff>
    8000046c:	01039393          	slli	x7,x7,0x10
    80000470:	f0038393          	addi	x7,x7,-256
    80000474:	04771863          	bne	x14,x7,800004c4 <fail>
    80000478:	00120213          	addi	x4,x4,1 # 1 <_start-0x7fffffff>
    8000047c:	00200293          	addi	x5,x0,2
    80000480:	fc5218e3          	bne	x4,x5,80000450 <test_17+0x8>

0000000080000484 <test_18>:
    80000484:	01200193          	addi	x3,x0,18
    80000488:	00002297          	auipc	x5,0x2
    8000048c:	b7828293          	addi	x5,x5,-1160 # 80002000 <begin_signature>
    80000490:	0002e103          	lwu	x2,0(x5)
    80000494:	00200113          	addi	x2,x0,2
    80000498:	00200393          	addi	x7,x0,2
    8000049c:	02711463          	bne	x2,x7,800004c4 <fail>

00000000800004a0 <test_19>:
    800004a0:	01300193          	addi	x3,x0,19
    800004a4:	00002297          	auipc	x5,0x2
    800004a8:	b5c28293          	addi	x5,x5,-1188 # 80002000 <begin_signature>
    800004ac:	0002e103          	lwu	x2,0(x5)
    800004b0:	00000013          	addi	x0,x0,0
    800004b4:	00200113          	addi	x2,x0,2
    800004b8:	00200393          	addi	x7,x0,2
    800004bc:	00711463          	bne	x2,x7,800004c4 <fail>
    800004c0:	02301063          	bne	x0,x3,800004e0 <pass>

00000000800004c4 <fail>:
    800004c4:	0ff0000f          	fence	iorw,iorw
    800004c8:	00018063          	beq	x3,x0,800004c8 <fail+0x4>
    800004cc:	00119193          	slli	x3,x3,0x1
    800004d0:	0011e193          	ori	x3,x3,1
    800004d4:	05d00893          	addi	x17,x0,93
    800004d8:	00018513          	addi	x10,x3,0
    800004dc:	00000073          	ecall

00000000800004e0 <pass>:
    800004e0:	0ff0000f          	fence	iorw,iorw
    800004e4:	00100193          	addi	x3,x0,1
    800004e8:	05d00893          	addi	x17,x0,93
    800004ec:	00000513          	addi	x10,x0,0
    800004f0:	00000073          	ecall
    800004f4:	c0001073          	unimp
    800004f8:	0000                	.2byte	0x0
	...
