
elf/riscv-tests/rv64ui/rv64ui-p-sd:     file format elf64-littleriscv


Disassembly of section .text.init:

0000000080000000 <_start>:
    80000000:	0500006f          	jal	x0,80000050 <reset_vector>

0000000080000004 <trap_vector>:
    80000004:	34202f73          	csrrs	x30,mcause,x0
    80000008:	00800f93          	addi	x31,x0,8
    8000000c:	03ff0863          	beq	x30,x31,8000003c <write_tohost>
    80000010:	00900f93          	addi	x31,x0,9
    80000014:	03ff0463          	beq	x30,x31,8000003c <write_tohost>
    80000018:	00b00f93          	addi	x31,x0,11
    8000001c:	03ff0063          	beq	x30,x31,8000003c <write_tohost>
    80000020:	00000f13          	addi	x30,x0,0
    80000024:	000f0463          	beq	x30,x0,8000002c <trap_vector+0x28>
    80000028:	000f0067          	jalr	x0,0(x30)
    8000002c:	34202f73          	csrrs	x30,mcause,x0
    80000030:	000f5463          	bge	x30,x0,80000038 <handle_exception>
    80000034:	0040006f          	jal	x0,80000038 <handle_exception>

0000000080000038 <handle_exception>:
    80000038:	5391e193          	ori	x3,x3,1337

000000008000003c <write_tohost>:
    8000003c:	00001f17          	auipc	x30,0x1
    80000040:	fc3f2223          	sw	x3,-60(x30) # 80001000 <tohost>
    80000044:	00001f17          	auipc	x30,0x1
    80000048:	fc0f2023          	sw	x0,-64(x30) # 80001004 <tohost+0x4>
    8000004c:	ff1ff06f          	jal	x0,8000003c <write_tohost>

0000000080000050 <reset_vector>:
    80000050:	00000093          	addi	x1,x0,0
    80000054:	00000113          	addi	x2,x0,0
    80000058:	00000193          	addi	x3,x0,0
    8000005c:	00000213          	addi	x4,x0,0
    80000060:	00000293          	addi	x5,x0,0
    80000064:	00000313          	addi	x6,x0,0
    80000068:	00000393          	addi	x7,x0,0
    8000006c:	00000413          	addi	x8,x0,0
    80000070:	00000493          	addi	x9,x0,0
    80000074:	00000513          	addi	x10,x0,0
    80000078:	00000593          	addi	x11,x0,0
    8000007c:	00000613          	addi	x12,x0,0
    80000080:	00000693          	addi	x13,x0,0
    80000084:	00000713          	addi	x14,x0,0
    80000088:	00000793          	addi	x15,x0,0
    8000008c:	00000813          	addi	x16,x0,0
    80000090:	00000893          	addi	x17,x0,0
    80000094:	00000913          	addi	x18,x0,0
    80000098:	00000993          	addi	x19,x0,0
    8000009c:	00000a13          	addi	x20,x0,0
    800000a0:	00000a93          	addi	x21,x0,0
    800000a4:	00000b13          	addi	x22,x0,0
    800000a8:	00000b93          	addi	x23,x0,0
    800000ac:	00000c13          	addi	x24,x0,0
    800000b0:	00000c93          	addi	x25,x0,0
    800000b4:	00000d13          	addi	x26,x0,0
    800000b8:	00000d93          	addi	x27,x0,0
    800000bc:	00000e13          	addi	x28,x0,0
    800000c0:	00000e93          	addi	x29,x0,0
    800000c4:	00000f13          	addi	x30,x0,0
    800000c8:	00000f93          	addi	x31,x0,0
    800000cc:	f1402573          	csrrs	x10,mhartid,x0
    800000d0:	00051063          	bne	x10,x0,800000d0 <reset_vector+0x80>
    800000d4:	00000297          	auipc	x5,0x0
    800000d8:	01028293          	addi	x5,x5,16 # 800000e4 <reset_vector+0x94>
    800000dc:	30529073          	csrrw	x0,mtvec,x5
    800000e0:	74445073          	csrrwi	x0,0x744,8
    800000e4:	00000297          	auipc	x5,0x0
    800000e8:	01028293          	addi	x5,x5,16 # 800000f4 <reset_vector+0xa4>
    800000ec:	30529073          	csrrw	x0,mtvec,x5
    800000f0:	18005073          	csrrwi	x0,satp,0
    800000f4:	00000297          	auipc	x5,0x0
    800000f8:	02428293          	addi	x5,x5,36 # 80000118 <reset_vector+0xc8>
    800000fc:	30529073          	csrrw	x0,mtvec,x5
    80000100:	0010029b          	addiw	x5,x0,1
    80000104:	03529293          	slli	x5,x5,0x35
    80000108:	fff28293          	addi	x5,x5,-1
    8000010c:	3b029073          	csrrw	x0,pmpaddr0,x5
    80000110:	01f00293          	addi	x5,x0,31
    80000114:	3a029073          	csrrw	x0,pmpcfg0,x5
    80000118:	30405073          	csrrwi	x0,mie,0
    8000011c:	00000297          	auipc	x5,0x0
    80000120:	01428293          	addi	x5,x5,20 # 80000130 <reset_vector+0xe0>
    80000124:	30529073          	csrrw	x0,mtvec,x5
    80000128:	30205073          	csrrwi	x0,medeleg,0
    8000012c:	30305073          	csrrwi	x0,mideleg,0
    80000130:	00000193          	addi	x3,x0,0
    80000134:	00000297          	auipc	x5,0x0
    80000138:	ed028293          	addi	x5,x5,-304 # 80000004 <trap_vector>
    8000013c:	30529073          	csrrw	x0,mtvec,x5
    80000140:	00100513          	addi	x10,x0,1
    80000144:	01f51513          	slli	x10,x10,0x1f
    80000148:	00055c63          	bge	x10,x0,80000160 <reset_vector+0x110>
    8000014c:	0ff0000f          	fence	iorw,iorw
    80000150:	00100193          	addi	x3,x0,1
    80000154:	05d00893          	addi	x17,x0,93
    80000158:	00000513          	addi	x10,x0,0
    8000015c:	00000073          	ecall
    80000160:	00000293          	addi	x5,x0,0
    80000164:	00028a63          	beq	x5,x0,80000178 <reset_vector+0x128>
    80000168:	10529073          	csrrw	x0,stvec,x5
    8000016c:	0000b2b7          	lui	x5,0xb
    80000170:	1092829b          	addiw	x5,x5,265 # b109 <_start-0x7fff4ef7>
    80000174:	30229073          	csrrw	x0,medeleg,x5
    80000178:	30005073          	csrrwi	x0,mstatus,0
    8000017c:	00000297          	auipc	x5,0x0
    80000180:	01428293          	addi	x5,x5,20 # 80000190 <test_2>
    80000184:	34129073          	csrrw	x0,mepc,x5
    80000188:	f1402573          	csrrs	x10,mhartid,x0
    8000018c:	30200073          	mret

0000000080000190 <test_2>:
    80000190:	00200193          	addi	x3,x0,2
    80000194:	00002097          	auipc	x1,0x2
    80000198:	e6c08093          	addi	x1,x1,-404 # 80002000 <begin_signature>
    8000019c:	00550137          	lui	x2,0x550
    800001a0:	0551011b          	addiw	x2,x2,85 # 550055 <_start-0x7faaffab>
    800001a4:	01011113          	slli	x2,x2,0x10
    800001a8:	05510113          	addi	x2,x2,85
    800001ac:	01111113          	slli	x2,x2,0x11
    800001b0:	0aa10113          	addi	x2,x2,170
    800001b4:	00000797          	auipc	x15,0x0
    800001b8:	01478793          	addi	x15,x15,20 # 800001c8 <test_2+0x38>
    800001bc:	0020b023          	sd	x2,0(x1)
    800001c0:	0000b703          	ld	x14,0(x1)
    800001c4:	0080006f          	jal	x0,800001cc <test_2+0x3c>
    800001c8:	00010713          	addi	x14,x2,0
    800001cc:	005503b7          	lui	x7,0x550
    800001d0:	0553839b          	addiw	x7,x7,85 # 550055 <_start-0x7faaffab>
    800001d4:	01039393          	slli	x7,x7,0x10
    800001d8:	05538393          	addi	x7,x7,85
    800001dc:	01139393          	slli	x7,x7,0x11
    800001e0:	0aa38393          	addi	x7,x7,170
    800001e4:	66771863          	bne	x14,x7,80000854 <fail>

00000000800001e8 <test_3>:
    800001e8:	00300193          	addi	x3,x0,3
    800001ec:	00002097          	auipc	x1,0x2
    800001f0:	e1408093          	addi	x1,x1,-492 # 80002000 <begin_signature>
    800001f4:	ffd50137          	lui	x2,0xffd50
    800001f8:	0551011b          	addiw	x2,x2,85 # ffffffffffd50055 <_end+0xffffffff7fd4e005>
    800001fc:	01011113          	slli	x2,x2,0x10
    80000200:	05510113          	addi	x2,x2,85
    80000204:	00d11113          	slli	x2,x2,0xd
    80000208:	00b10113          	addi	x2,x2,11
    8000020c:	00c11113          	slli	x2,x2,0xc
    80000210:	a0010113          	addi	x2,x2,-1536
    80000214:	00000797          	auipc	x15,0x0
    80000218:	01478793          	addi	x15,x15,20 # 80000228 <test_3+0x40>
    8000021c:	0020b423          	sd	x2,8(x1)
    80000220:	0080b703          	ld	x14,8(x1)
    80000224:	0080006f          	jal	x0,8000022c <test_3+0x44>
    80000228:	00010713          	addi	x14,x2,0
    8000022c:	ffd503b7          	lui	x7,0xffd50
    80000230:	0553839b          	addiw	x7,x7,85 # ffffffffffd50055 <_end+0xffffffff7fd4e005>
    80000234:	01039393          	slli	x7,x7,0x10
    80000238:	05538393          	addi	x7,x7,85
    8000023c:	00d39393          	slli	x7,x7,0xd
    80000240:	00b38393          	addi	x7,x7,11
    80000244:	00c39393          	slli	x7,x7,0xc
    80000248:	a0038393          	addi	x7,x7,-1536
    8000024c:	60771463          	bne	x14,x7,80000854 <fail>

0000000080000250 <test_4>:
    80000250:	00400193          	addi	x3,x0,4
    80000254:	00002097          	auipc	x1,0x2
    80000258:	dac08093          	addi	x1,x1,-596 # 80002000 <begin_signature>
    8000025c:	00550137          	lui	x2,0x550
    80000260:	0551011b          	addiw	x2,x2,85 # 550055 <_start-0x7faaffab>
    80000264:	00d11113          	slli	x2,x2,0xd
    80000268:	00b10113          	addi	x2,x2,11
    8000026c:	00c11113          	slli	x2,x2,0xc
    80000270:	a0110113          	addi	x2,x2,-1535
    80000274:	00c11113          	slli	x2,x2,0xc
    80000278:	aa010113          	addi	x2,x2,-1376
    8000027c:	00000797          	auipc	x15,0x0
    80000280:	01478793          	addi	x15,x15,20 # 80000290 <test_4+0x40>
    80000284:	0020b823          	sd	x2,16(x1)
    80000288:	0100b703          	ld	x14,16(x1)
    8000028c:	0080006f          	jal	x0,80000294 <test_4+0x44>
    80000290:	00010713          	addi	x14,x2,0
    80000294:	005503b7          	lui	x7,0x550
    80000298:	0553839b          	addiw	x7,x7,85 # 550055 <_start-0x7faaffab>
    8000029c:	00d39393          	slli	x7,x7,0xd
    800002a0:	00b38393          	addi	x7,x7,11
    800002a4:	00c39393          	slli	x7,x7,0xc
    800002a8:	a0138393          	addi	x7,x7,-1535
    800002ac:	00c39393          	slli	x7,x7,0xc
    800002b0:	aa038393          	addi	x7,x7,-1376
    800002b4:	5a771063          	bne	x14,x7,80000854 <fail>

00000000800002b8 <test_5>:
    800002b8:	00500193          	addi	x3,x0,5
    800002bc:	00002097          	auipc	x1,0x2
    800002c0:	d4408093          	addi	x1,x1,-700 # 80002000 <begin_signature>
    800002c4:	fffd0137          	lui	x2,0xfffd0
    800002c8:	0551011b          	addiw	x2,x2,85 # fffffffffffd0055 <_end+0xffffffff7ffce005>
    800002cc:	01011113          	slli	x2,x2,0x10
    800002d0:	05510113          	addi	x2,x2,85
    800002d4:	01011113          	slli	x2,x2,0x10
    800002d8:	05510113          	addi	x2,x2,85
    800002dc:	00d11113          	slli	x2,x2,0xd
    800002e0:	00a10113          	addi	x2,x2,10
    800002e4:	00000797          	auipc	x15,0x0
    800002e8:	01478793          	addi	x15,x15,20 # 800002f8 <test_5+0x40>
    800002ec:	0020bc23          	sd	x2,24(x1)
    800002f0:	0180b703          	ld	x14,24(x1)
    800002f4:	0080006f          	jal	x0,800002fc <test_5+0x44>
    800002f8:	00010713          	addi	x14,x2,0
    800002fc:	fffd03b7          	lui	x7,0xfffd0
    80000300:	0553839b          	addiw	x7,x7,85 # fffffffffffd0055 <_end+0xffffffff7ffce005>
    80000304:	01039393          	slli	x7,x7,0x10
    80000308:	05538393          	addi	x7,x7,85
    8000030c:	01039393          	slli	x7,x7,0x10
    80000310:	05538393          	addi	x7,x7,85
    80000314:	00d39393          	slli	x7,x7,0xd
    80000318:	00a38393          	addi	x7,x7,10
    8000031c:	52771c63          	bne	x14,x7,80000854 <fail>

0000000080000320 <test_6>:
    80000320:	00600193          	addi	x3,x0,6
    80000324:	00002097          	auipc	x1,0x2
    80000328:	d1408093          	addi	x1,x1,-748 # 80002038 <tdat8>
    8000032c:	00550137          	lui	x2,0x550
    80000330:	0551011b          	addiw	x2,x2,85 # 550055 <_start-0x7faaffab>
    80000334:	01011113          	slli	x2,x2,0x10
    80000338:	05510113          	addi	x2,x2,85
    8000033c:	01111113          	slli	x2,x2,0x11
    80000340:	0aa10113          	addi	x2,x2,170
    80000344:	00000797          	auipc	x15,0x0
    80000348:	01478793          	addi	x15,x15,20 # 80000358 <test_6+0x38>
    8000034c:	fe20b423          	sd	x2,-24(x1)
    80000350:	fe80b703          	ld	x14,-24(x1)
    80000354:	0080006f          	jal	x0,8000035c <test_6+0x3c>
    80000358:	00010713          	addi	x14,x2,0
    8000035c:	005503b7          	lui	x7,0x550
    80000360:	0553839b          	addiw	x7,x7,85 # 550055 <_start-0x7faaffab>
    80000364:	01039393          	slli	x7,x7,0x10
    80000368:	05538393          	addi	x7,x7,85
    8000036c:	01139393          	slli	x7,x7,0x11
    80000370:	0aa38393          	addi	x7,x7,170
    80000374:	4e771063          	bne	x14,x7,80000854 <fail>

0000000080000378 <test_7>:
    80000378:	00700193          	addi	x3,x0,7
    8000037c:	00002097          	auipc	x1,0x2
    80000380:	cbc08093          	addi	x1,x1,-836 # 80002038 <tdat8>
    80000384:	ffd50137          	lui	x2,0xffd50
    80000388:	0551011b          	addiw	x2,x2,85 # ffffffffffd50055 <_end+0xffffffff7fd4e005>
    8000038c:	01011113          	slli	x2,x2,0x10
    80000390:	05510113          	addi	x2,x2,85
    80000394:	00d11113          	slli	x2,x2,0xd
    80000398:	00b10113          	addi	x2,x2,11
    8000039c:	00c11113          	slli	x2,x2,0xc
    800003a0:	a0010113          	addi	x2,x2,-1536
    800003a4:	00000797          	auipc	x15,0x0
    800003a8:	01478793          	addi	x15,x15,20 # 800003b8 <test_7+0x40>
    800003ac:	fe20b823          	sd	x2,-16(x1)
    800003b0:	ff00b703          	ld	x14,-16(x1)
    800003b4:	0080006f          	jal	x0,800003bc <test_7+0x44>
    800003b8:	00010713          	addi	x14,x2,0
    800003bc:	ffd503b7          	lui	x7,0xffd50
    800003c0:	0553839b          	addiw	x7,x7,85 # ffffffffffd50055 <_end+0xffffffff7fd4e005>
    800003c4:	01039393          	slli	x7,x7,0x10
    800003c8:	05538393          	addi	x7,x7,85
    800003cc:	00d39393          	slli	x7,x7,0xd
    800003d0:	00b38393          	addi	x7,x7,11
    800003d4:	00c39393          	slli	x7,x7,0xc
    800003d8:	a0038393          	addi	x7,x7,-1536
    800003dc:	46771c63          	bne	x14,x7,80000854 <fail>

00000000800003e0 <test_8>:
    800003e0:	00800193          	addi	x3,x0,8
    800003e4:	00002097          	auipc	x1,0x2
    800003e8:	c5408093          	addi	x1,x1,-940 # 80002038 <tdat8>
    800003ec:	00550137          	lui	x2,0x550
    800003f0:	0551011b          	addiw	x2,x2,85 # 550055 <_start-0x7faaffab>
    800003f4:	00d11113          	slli	x2,x2,0xd
    800003f8:	00b10113          	addi	x2,x2,11
    800003fc:	00c11113          	slli	x2,x2,0xc
    80000400:	a0110113          	addi	x2,x2,-1535
    80000404:	00c11113          	slli	x2,x2,0xc
    80000408:	aa010113          	addi	x2,x2,-1376
    8000040c:	00000797          	auipc	x15,0x0
    80000410:	01478793          	addi	x15,x15,20 # 80000420 <test_8+0x40>
    80000414:	fe20bc23          	sd	x2,-8(x1)
    80000418:	ff80b703          	ld	x14,-8(x1)
    8000041c:	0080006f          	jal	x0,80000424 <test_8+0x44>
    80000420:	00010713          	addi	x14,x2,0
    80000424:	005503b7          	lui	x7,0x550
    80000428:	0553839b          	addiw	x7,x7,85 # 550055 <_start-0x7faaffab>
    8000042c:	00d39393          	slli	x7,x7,0xd
    80000430:	00b38393          	addi	x7,x7,11
    80000434:	00c39393          	slli	x7,x7,0xc
    80000438:	a0138393          	addi	x7,x7,-1535
    8000043c:	00c39393          	slli	x7,x7,0xc
    80000440:	aa038393          	addi	x7,x7,-1376
    80000444:	40771863          	bne	x14,x7,80000854 <fail>

0000000080000448 <test_9>:
    80000448:	00900193          	addi	x3,x0,9
    8000044c:	00002097          	auipc	x1,0x2
    80000450:	bec08093          	addi	x1,x1,-1044 # 80002038 <tdat8>
    80000454:	fffd0137          	lui	x2,0xfffd0
    80000458:	0551011b          	addiw	x2,x2,85 # fffffffffffd0055 <_end+0xffffffff7ffce005>
    8000045c:	01011113          	slli	x2,x2,0x10
    80000460:	05510113          	addi	x2,x2,85
    80000464:	01011113          	slli	x2,x2,0x10
    80000468:	05510113          	addi	x2,x2,85
    8000046c:	00d11113          	slli	x2,x2,0xd
    80000470:	00a10113          	addi	x2,x2,10
    80000474:	00000797          	auipc	x15,0x0
    80000478:	01478793          	addi	x15,x15,20 # 80000488 <test_9+0x40>
    8000047c:	0020b023          	sd	x2,0(x1)
    80000480:	0000b703          	ld	x14,0(x1)
    80000484:	0080006f          	jal	x0,8000048c <test_9+0x44>
    80000488:	00010713          	addi	x14,x2,0
    8000048c:	fffd03b7          	lui	x7,0xfffd0
    80000490:	0553839b          	addiw	x7,x7,85 # fffffffffffd0055 <_end+0xffffffff7ffce005>
    80000494:	01039393          	slli	x7,x7,0x10
    80000498:	05538393          	addi	x7,x7,85
    8000049c:	01039393          	slli	x7,x7,0x10
    800004a0:	05538393          	addi	x7,x7,85
    800004a4:	00d39393          	slli	x7,x7,0xd
    800004a8:	00a38393          	addi	x7,x7,10
    800004ac:	3a771463          	bne	x14,x7,80000854 <fail>

00000000800004b0 <test_10>:
    800004b0:	00a00193          	addi	x3,x0,10
    800004b4:	00002097          	auipc	x1,0x2
    800004b8:	b8c08093          	addi	x1,x1,-1140 # 80002040 <tdat9>
    800004bc:	00247137          	lui	x2,0x247
    800004c0:	8ad1011b          	addiw	x2,x2,-1875 # 2468ad <_start-0x7fdb9753>
    800004c4:	00e11113          	slli	x2,x2,0xe
    800004c8:	c0910113          	addi	x2,x2,-1015
    800004cc:	00d11113          	slli	x2,x2,0xd
    800004d0:	34510113          	addi	x2,x2,837
    800004d4:	00c11113          	slli	x2,x2,0xc
    800004d8:	67810113          	addi	x2,x2,1656
    800004dc:	fe008213          	addi	x4,x1,-32
    800004e0:	02223023          	sd	x2,32(x4) # 20 <_start-0x7fffffe0>
    800004e4:	0000b283          	ld	x5,0(x1)
    800004e8:	002473b7          	lui	x7,0x247
    800004ec:	8ad3839b          	addiw	x7,x7,-1875 # 2468ad <_start-0x7fdb9753>
    800004f0:	00e39393          	slli	x7,x7,0xe
    800004f4:	c0938393          	addi	x7,x7,-1015
    800004f8:	00d39393          	slli	x7,x7,0xd
    800004fc:	34538393          	addi	x7,x7,837
    80000500:	00c39393          	slli	x7,x7,0xc
    80000504:	67838393          	addi	x7,x7,1656
    80000508:	34729663          	bne	x5,x7,80000854 <fail>

000000008000050c <test_11>:
    8000050c:	00b00193          	addi	x3,x0,11
    80000510:	00002097          	auipc	x1,0x2
    80000514:	b3008093          	addi	x1,x1,-1232 # 80002040 <tdat9>
    80000518:	00b04137          	lui	x2,0xb04
    8000051c:	2611011b          	addiw	x2,x2,609 # b04261 <_start-0x7f4fbd9f>
    80000520:	00c11113          	slli	x2,x2,0xc
    80000524:	30b10113          	addi	x2,x2,779
    80000528:	00f11113          	slli	x2,x2,0xf
    8000052c:	21310113          	addi	x2,x2,531
    80000530:	00c11113          	slli	x2,x2,0xc
    80000534:	09810113          	addi	x2,x2,152
    80000538:	ffd08093          	addi	x1,x1,-3
    8000053c:	0020b5a3          	sd	x2,11(x1)
    80000540:	00002217          	auipc	x4,0x2
    80000544:	b0820213          	addi	x4,x4,-1272 # 80002048 <tdat10>
    80000548:	00023283          	ld	x5,0(x4) # 0 <_start-0x80000000>
    8000054c:	00b043b7          	lui	x7,0xb04
    80000550:	2613839b          	addiw	x7,x7,609 # b04261 <_start-0x7f4fbd9f>
    80000554:	00c39393          	slli	x7,x7,0xc
    80000558:	30b38393          	addi	x7,x7,779
    8000055c:	00f39393          	slli	x7,x7,0xf
    80000560:	21338393          	addi	x7,x7,531
    80000564:	00c39393          	slli	x7,x7,0xc
    80000568:	09838393          	addi	x7,x7,152
    8000056c:	2e729463          	bne	x5,x7,80000854 <fail>

0000000080000570 <test_12>:
    80000570:	00c00193          	addi	x3,x0,12
    80000574:	00000213          	addi	x4,x0,0
    80000578:	0abbd0b7          	lui	x1,0xabbd
    8000057c:	cdd0809b          	addiw	x1,x1,-803 # abbccdd <_start-0x75443323>
    80000580:	00002117          	auipc	x2,0x2
    80000584:	a8010113          	addi	x2,x2,-1408 # 80002000 <begin_signature>
    80000588:	00113023          	sd	x1,0(x2)
    8000058c:	00013703          	ld	x14,0(x2)
    80000590:	0abbd3b7          	lui	x7,0xabbd
    80000594:	cdd3839b          	addiw	x7,x7,-803 # abbccdd <_start-0x75443323>
    80000598:	2a771e63          	bne	x14,x7,80000854 <fail>
    8000059c:	00120213          	addi	x4,x4,1 # 1 <_start-0x7fffffff>
    800005a0:	00200293          	addi	x5,x0,2
    800005a4:	fc521ae3          	bne	x4,x5,80000578 <test_12+0x8>

00000000800005a8 <test_13>:
    800005a8:	00d00193          	addi	x3,x0,13
    800005ac:	00000213          	addi	x4,x0,0
    800005b0:	0aabc0b7          	lui	x1,0xaabc
    800005b4:	ccd0809b          	addiw	x1,x1,-819 # aabbccd <_start-0x75544333>
    800005b8:	00002117          	auipc	x2,0x2
    800005bc:	a4810113          	addi	x2,x2,-1464 # 80002000 <begin_signature>
    800005c0:	00000013          	addi	x0,x0,0
    800005c4:	00113423          	sd	x1,8(x2)
    800005c8:	00813703          	ld	x14,8(x2)
    800005cc:	0aabc3b7          	lui	x7,0xaabc
    800005d0:	ccd3839b          	addiw	x7,x7,-819 # aabbccd <_start-0x75544333>
    800005d4:	28771063          	bne	x14,x7,80000854 <fail>
    800005d8:	00120213          	addi	x4,x4,1 # 1 <_start-0x7fffffff>
    800005dc:	00200293          	addi	x5,x0,2
    800005e0:	fc5218e3          	bne	x4,x5,800005b0 <test_13+0x8>

00000000800005e4 <test_14>:
    800005e4:	00e00193          	addi	x3,x0,14
    800005e8:	00000213          	addi	x4,x0,0
    800005ec:	0daac0b7          	lui	x1,0xdaac
    800005f0:	bcc0809b          	addiw	x1,x1,-1076 # daabbcc <_start-0x72554434>
    800005f4:	00002117          	auipc	x2,0x2
    800005f8:	a0c10113          	addi	x2,x2,-1524 # 80002000 <begin_signature>
    800005fc:	00000013          	addi	x0,x0,0
    80000600:	00000013          	addi	x0,x0,0
    80000604:	00113823          	sd	x1,16(x2)
    80000608:	01013703          	ld	x14,16(x2)
    8000060c:	0daac3b7          	lui	x7,0xdaac
    80000610:	bcc3839b          	addiw	x7,x7,-1076 # daabbcc <_start-0x72554434>
    80000614:	24771063          	bne	x14,x7,80000854 <fail>
    80000618:	00120213          	addi	x4,x4,1 # 1 <_start-0x7fffffff>
    8000061c:	00200293          	addi	x5,x0,2
    80000620:	fc5216e3          	bne	x4,x5,800005ec <test_14+0x8>

0000000080000624 <test_15>:
    80000624:	00f00193          	addi	x3,x0,15
    80000628:	00000213          	addi	x4,x0,0
    8000062c:	0ddab0b7          	lui	x1,0xddab
    80000630:	bbc0809b          	addiw	x1,x1,-1092 # ddaabbc <_start-0x72255444>
    80000634:	00000013          	addi	x0,x0,0
    80000638:	00002117          	auipc	x2,0x2
    8000063c:	9c810113          	addi	x2,x2,-1592 # 80002000 <begin_signature>
    80000640:	00113c23          	sd	x1,24(x2)
    80000644:	01813703          	ld	x14,24(x2)
    80000648:	0ddab3b7          	lui	x7,0xddab
    8000064c:	bbc3839b          	addiw	x7,x7,-1092 # ddaabbc <_start-0x72255444>
    80000650:	20771263          	bne	x14,x7,80000854 <fail>
    80000654:	00120213          	addi	x4,x4,1 # 1 <_start-0x7fffffff>
    80000658:	00200293          	addi	x5,x0,2
    8000065c:	fc5218e3          	bne	x4,x5,8000062c <test_15+0x8>

0000000080000660 <test_16>:
    80000660:	01000193          	addi	x3,x0,16
    80000664:	00000213          	addi	x4,x0,0
    80000668:	0cddb0b7          	lui	x1,0xcddb
    8000066c:	abb0809b          	addiw	x1,x1,-1349 # cddaabb <_start-0x73225545>
    80000670:	00000013          	addi	x0,x0,0
    80000674:	00002117          	auipc	x2,0x2
    80000678:	98c10113          	addi	x2,x2,-1652 # 80002000 <begin_signature>
    8000067c:	00000013          	addi	x0,x0,0
    80000680:	02113023          	sd	x1,32(x2)
    80000684:	02013703          	ld	x14,32(x2)
    80000688:	0cddb3b7          	lui	x7,0xcddb
    8000068c:	abb3839b          	addiw	x7,x7,-1349 # cddaabb <_start-0x73225545>
    80000690:	1c771263          	bne	x14,x7,80000854 <fail>
    80000694:	00120213          	addi	x4,x4,1 # 1 <_start-0x7fffffff>
    80000698:	00200293          	addi	x5,x0,2
    8000069c:	fc5216e3          	bne	x4,x5,80000668 <test_16+0x8>

00000000800006a0 <test_17>:
    800006a0:	01100193          	addi	x3,x0,17
    800006a4:	00000213          	addi	x4,x0,0
    800006a8:	0ccde0b7          	lui	x1,0xccde
    800006ac:	aab0809b          	addiw	x1,x1,-1365 # ccddaab <_start-0x73322555>
    800006b0:	00000013          	addi	x0,x0,0
    800006b4:	00000013          	addi	x0,x0,0
    800006b8:	00002117          	auipc	x2,0x2
    800006bc:	94810113          	addi	x2,x2,-1720 # 80002000 <begin_signature>
    800006c0:	02113423          	sd	x1,40(x2)
    800006c4:	02813703          	ld	x14,40(x2)
    800006c8:	0ccde3b7          	lui	x7,0xccde
    800006cc:	aab3839b          	addiw	x7,x7,-1365 # ccddaab <_start-0x73322555>
    800006d0:	18771263          	bne	x14,x7,80000854 <fail>
    800006d4:	00120213          	addi	x4,x4,1 # 1 <_start-0x7fffffff>
    800006d8:	00200293          	addi	x5,x0,2
    800006dc:	fc5216e3          	bne	x4,x5,800006a8 <test_17+0x8>

00000000800006e0 <test_18>:
    800006e0:	01200193          	addi	x3,x0,18
    800006e4:	00000213          	addi	x4,x0,0
    800006e8:	00002117          	auipc	x2,0x2
    800006ec:	91810113          	addi	x2,x2,-1768 # 80002000 <begin_signature>
    800006f0:	001120b7          	lui	x1,0x112
    800006f4:	2330809b          	addiw	x1,x1,563 # 112233 <_start-0x7feeddcd>
    800006f8:	00113023          	sd	x1,0(x2)
    800006fc:	00013703          	ld	x14,0(x2)
    80000700:	001123b7          	lui	x7,0x112
    80000704:	2333839b          	addiw	x7,x7,563 # 112233 <_start-0x7feeddcd>
    80000708:	14771663          	bne	x14,x7,80000854 <fail>
    8000070c:	00120213          	addi	x4,x4,1 # 1 <_start-0x7fffffff>
    80000710:	00200293          	addi	x5,x0,2
    80000714:	fc521ae3          	bne	x4,x5,800006e8 <test_18+0x8>

0000000080000718 <test_19>:
    80000718:	01300193          	addi	x3,x0,19
    8000071c:	00000213          	addi	x4,x0,0
    80000720:	00002117          	auipc	x2,0x2
    80000724:	8e010113          	addi	x2,x2,-1824 # 80002000 <begin_signature>
    80000728:	300110b7          	lui	x1,0x30011
    8000072c:	2230809b          	addiw	x1,x1,547 # 30011223 <_start-0x4ffeeddd>
    80000730:	00000013          	addi	x0,x0,0
    80000734:	00113423          	sd	x1,8(x2)
    80000738:	00813703          	ld	x14,8(x2)
    8000073c:	300113b7          	lui	x7,0x30011
    80000740:	2233839b          	addiw	x7,x7,547 # 30011223 <_start-0x4ffeeddd>
    80000744:	10771863          	bne	x14,x7,80000854 <fail>
    80000748:	00120213          	addi	x4,x4,1 # 1 <_start-0x7fffffff>
    8000074c:	00200293          	addi	x5,x0,2
    80000750:	fc5218e3          	bne	x4,x5,80000720 <test_19+0x8>

0000000080000754 <test_20>:
    80000754:	01400193          	addi	x3,x0,20
    80000758:	00000213          	addi	x4,x0,0
    8000075c:	00002117          	auipc	x2,0x2
    80000760:	8a410113          	addi	x2,x2,-1884 # 80002000 <begin_signature>
    80000764:	330010b7          	lui	x1,0x33001
    80000768:	1220809b          	addiw	x1,x1,290 # 33001122 <_start-0x4cffeede>
    8000076c:	00000013          	addi	x0,x0,0
    80000770:	00000013          	addi	x0,x0,0
    80000774:	00113823          	sd	x1,16(x2)
    80000778:	01013703          	ld	x14,16(x2)
    8000077c:	330013b7          	lui	x7,0x33001
    80000780:	1223839b          	addiw	x7,x7,290 # 33001122 <_start-0x4cffeede>
    80000784:	0c771863          	bne	x14,x7,80000854 <fail>
    80000788:	00120213          	addi	x4,x4,1 # 1 <_start-0x7fffffff>
    8000078c:	00200293          	addi	x5,x0,2
    80000790:	fc5216e3          	bne	x4,x5,8000075c <test_20+0x8>

0000000080000794 <test_21>:
    80000794:	01500193          	addi	x3,x0,21
    80000798:	00000213          	addi	x4,x0,0
    8000079c:	00002117          	auipc	x2,0x2
    800007a0:	86410113          	addi	x2,x2,-1948 # 80002000 <begin_signature>
    800007a4:	00000013          	addi	x0,x0,0
    800007a8:	233000b7          	lui	x1,0x23300
    800007ac:	1120809b          	addiw	x1,x1,274 # 23300112 <_start-0x5ccffeee>
    800007b0:	00113c23          	sd	x1,24(x2)
    800007b4:	01813703          	ld	x14,24(x2)
    800007b8:	233003b7          	lui	x7,0x23300
    800007bc:	1123839b          	addiw	x7,x7,274 # 23300112 <_start-0x5ccffeee>
    800007c0:	08771a63          	bne	x14,x7,80000854 <fail>
    800007c4:	00120213          	addi	x4,x4,1 # 1 <_start-0x7fffffff>
    800007c8:	00200293          	addi	x5,x0,2
    800007cc:	fc5218e3          	bne	x4,x5,8000079c <test_21+0x8>

00000000800007d0 <test_22>:
    800007d0:	01600193          	addi	x3,x0,22
    800007d4:	00000213          	addi	x4,x0,0
    800007d8:	00002117          	auipc	x2,0x2
    800007dc:	82810113          	addi	x2,x2,-2008 # 80002000 <begin_signature>
    800007e0:	00000013          	addi	x0,x0,0
    800007e4:	223300b7          	lui	x1,0x22330
    800007e8:	0110809b          	addiw	x1,x1,17 # 22330011 <_start-0x5dccffef>
    800007ec:	00000013          	addi	x0,x0,0
    800007f0:	02113023          	sd	x1,32(x2)
    800007f4:	02013703          	ld	x14,32(x2)
    800007f8:	223303b7          	lui	x7,0x22330
    800007fc:	0113839b          	addiw	x7,x7,17 # 22330011 <_start-0x5dccffef>
    80000800:	04771a63          	bne	x14,x7,80000854 <fail>
    80000804:	00120213          	addi	x4,x4,1 # 1 <_start-0x7fffffff>
    80000808:	00200293          	addi	x5,x0,2
    8000080c:	fc5216e3          	bne	x4,x5,800007d8 <test_22+0x8>

0000000080000810 <test_23>:
    80000810:	01700193          	addi	x3,x0,23
    80000814:	00000213          	addi	x4,x0,0
    80000818:	00001117          	auipc	x2,0x1
    8000081c:	7e810113          	addi	x2,x2,2024 # 80002000 <begin_signature>
    80000820:	00000013          	addi	x0,x0,0
    80000824:	00000013          	addi	x0,x0,0
    80000828:	122330b7          	lui	x1,0x12233
    8000082c:	0010809b          	addiw	x1,x1,1 # 12233001 <_start-0x6ddccfff>
    80000830:	02113423          	sd	x1,40(x2)
    80000834:	02813703          	ld	x14,40(x2)
    80000838:	122333b7          	lui	x7,0x12233
    8000083c:	0013839b          	addiw	x7,x7,1 # 12233001 <_start-0x6ddccfff>
    80000840:	00771a63          	bne	x14,x7,80000854 <fail>
    80000844:	00120213          	addi	x4,x4,1 # 1 <_start-0x7fffffff>
    80000848:	00200293          	addi	x5,x0,2
    8000084c:	fc5216e3          	bne	x4,x5,80000818 <test_23+0x8>
    80000850:	02301063          	bne	x0,x3,80000870 <pass>

0000000080000854 <fail>:
    80000854:	0ff0000f          	fence	iorw,iorw
    80000858:	00018063          	beq	x3,x0,80000858 <fail+0x4>
    8000085c:	00119193          	slli	x3,x3,0x1
    80000860:	0011e193          	ori	x3,x3,1
    80000864:	05d00893          	addi	x17,x0,93
    80000868:	00018513          	addi	x10,x3,0
    8000086c:	00000073          	ecall

0000000080000870 <pass>:
    80000870:	0ff0000f          	fence	iorw,iorw
    80000874:	00100193          	addi	x3,x0,1
    80000878:	05d00893          	addi	x17,x0,93
    8000087c:	00000513          	addi	x10,x0,0
    80000880:	00000073          	ecall
    80000884:	c0001073          	unimp
	...
