
elf/riscv-tests/rv64ui/rv64ui-p-sllw:     file format elf64-littleriscv


Disassembly of section .text.init:

0000000080000000 <_start>:
    80000000:	0500006f          	jal	x0,80000050 <reset_vector>

0000000080000004 <trap_vector>:
    80000004:	34202f73          	csrrs	x30,mcause,x0
    80000008:	00800f93          	addi	x31,x0,8
    8000000c:	03ff0863          	beq	x30,x31,8000003c <write_tohost>
    80000010:	00900f93          	addi	x31,x0,9
    80000014:	03ff0463          	beq	x30,x31,8000003c <write_tohost>
    80000018:	00b00f93          	addi	x31,x0,11
    8000001c:	03ff0063          	beq	x30,x31,8000003c <write_tohost>
    80000020:	00000f13          	addi	x30,x0,0
    80000024:	000f0463          	beq	x30,x0,8000002c <trap_vector+0x28>
    80000028:	000f0067          	jalr	x0,0(x30)
    8000002c:	34202f73          	csrrs	x30,mcause,x0
    80000030:	000f5463          	bge	x30,x0,80000038 <handle_exception>
    80000034:	0040006f          	jal	x0,80000038 <handle_exception>

0000000080000038 <handle_exception>:
    80000038:	5391e193          	ori	x3,x3,1337

000000008000003c <write_tohost>:
    8000003c:	00001f17          	auipc	x30,0x1
    80000040:	fc3f2223          	sw	x3,-60(x30) # 80001000 <tohost>
    80000044:	00001f17          	auipc	x30,0x1
    80000048:	fc0f2023          	sw	x0,-64(x30) # 80001004 <tohost+0x4>
    8000004c:	ff1ff06f          	jal	x0,8000003c <write_tohost>

0000000080000050 <reset_vector>:
    80000050:	00000093          	addi	x1,x0,0
    80000054:	00000113          	addi	x2,x0,0
    80000058:	00000193          	addi	x3,x0,0
    8000005c:	00000213          	addi	x4,x0,0
    80000060:	00000293          	addi	x5,x0,0
    80000064:	00000313          	addi	x6,x0,0
    80000068:	00000393          	addi	x7,x0,0
    8000006c:	00000413          	addi	x8,x0,0
    80000070:	00000493          	addi	x9,x0,0
    80000074:	00000513          	addi	x10,x0,0
    80000078:	00000593          	addi	x11,x0,0
    8000007c:	00000613          	addi	x12,x0,0
    80000080:	00000693          	addi	x13,x0,0
    80000084:	00000713          	addi	x14,x0,0
    80000088:	00000793          	addi	x15,x0,0
    8000008c:	00000813          	addi	x16,x0,0
    80000090:	00000893          	addi	x17,x0,0
    80000094:	00000913          	addi	x18,x0,0
    80000098:	00000993          	addi	x19,x0,0
    8000009c:	00000a13          	addi	x20,x0,0
    800000a0:	00000a93          	addi	x21,x0,0
    800000a4:	00000b13          	addi	x22,x0,0
    800000a8:	00000b93          	addi	x23,x0,0
    800000ac:	00000c13          	addi	x24,x0,0
    800000b0:	00000c93          	addi	x25,x0,0
    800000b4:	00000d13          	addi	x26,x0,0
    800000b8:	00000d93          	addi	x27,x0,0
    800000bc:	00000e13          	addi	x28,x0,0
    800000c0:	00000e93          	addi	x29,x0,0
    800000c4:	00000f13          	addi	x30,x0,0
    800000c8:	00000f93          	addi	x31,x0,0
    800000cc:	f1402573          	csrrs	x10,mhartid,x0
    800000d0:	00051063          	bne	x10,x0,800000d0 <reset_vector+0x80>
    800000d4:	00000297          	auipc	x5,0x0
    800000d8:	01028293          	addi	x5,x5,16 # 800000e4 <reset_vector+0x94>
    800000dc:	30529073          	csrrw	x0,mtvec,x5
    800000e0:	74445073          	csrrwi	x0,0x744,8
    800000e4:	00000297          	auipc	x5,0x0
    800000e8:	01028293          	addi	x5,x5,16 # 800000f4 <reset_vector+0xa4>
    800000ec:	30529073          	csrrw	x0,mtvec,x5
    800000f0:	18005073          	csrrwi	x0,satp,0
    800000f4:	00000297          	auipc	x5,0x0
    800000f8:	02428293          	addi	x5,x5,36 # 80000118 <reset_vector+0xc8>
    800000fc:	30529073          	csrrw	x0,mtvec,x5
    80000100:	0010029b          	addiw	x5,x0,1
    80000104:	03529293          	slli	x5,x5,0x35
    80000108:	fff28293          	addi	x5,x5,-1
    8000010c:	3b029073          	csrrw	x0,pmpaddr0,x5
    80000110:	01f00293          	addi	x5,x0,31
    80000114:	3a029073          	csrrw	x0,pmpcfg0,x5
    80000118:	30405073          	csrrwi	x0,mie,0
    8000011c:	00000297          	auipc	x5,0x0
    80000120:	01428293          	addi	x5,x5,20 # 80000130 <reset_vector+0xe0>
    80000124:	30529073          	csrrw	x0,mtvec,x5
    80000128:	30205073          	csrrwi	x0,medeleg,0
    8000012c:	30305073          	csrrwi	x0,mideleg,0
    80000130:	00000193          	addi	x3,x0,0
    80000134:	00000297          	auipc	x5,0x0
    80000138:	ed028293          	addi	x5,x5,-304 # 80000004 <trap_vector>
    8000013c:	30529073          	csrrw	x0,mtvec,x5
    80000140:	00100513          	addi	x10,x0,1
    80000144:	01f51513          	slli	x10,x10,0x1f
    80000148:	00055c63          	bge	x10,x0,80000160 <reset_vector+0x110>
    8000014c:	0ff0000f          	fence	iorw,iorw
    80000150:	00100193          	addi	x3,x0,1
    80000154:	05d00893          	addi	x17,x0,93
    80000158:	00000513          	addi	x10,x0,0
    8000015c:	00000073          	ecall
    80000160:	00000293          	addi	x5,x0,0
    80000164:	00028a63          	beq	x5,x0,80000178 <reset_vector+0x128>
    80000168:	10529073          	csrrw	x0,stvec,x5
    8000016c:	0000b2b7          	lui	x5,0xb
    80000170:	1092829b          	addiw	x5,x5,265 # b109 <_start-0x7fff4ef7>
    80000174:	30229073          	csrrw	x0,medeleg,x5
    80000178:	30005073          	csrrwi	x0,mstatus,0
    8000017c:	00000297          	auipc	x5,0x0
    80000180:	01428293          	addi	x5,x5,20 # 80000190 <test_2>
    80000184:	34129073          	csrrw	x0,mepc,x5
    80000188:	f1402573          	csrrs	x10,mhartid,x0
    8000018c:	30200073          	mret

0000000080000190 <test_2>:
    80000190:	00200193          	addi	x3,x0,2
    80000194:	00100093          	addi	x1,x0,1
    80000198:	00000113          	addi	x2,x0,0
    8000019c:	0020973b          	sllw	x14,x1,x2
    800001a0:	00100393          	addi	x7,x0,1
    800001a4:	5e771c63          	bne	x14,x7,8000079c <fail>

00000000800001a8 <test_3>:
    800001a8:	00300193          	addi	x3,x0,3
    800001ac:	00100093          	addi	x1,x0,1
    800001b0:	00100113          	addi	x2,x0,1
    800001b4:	0020973b          	sllw	x14,x1,x2
    800001b8:	00200393          	addi	x7,x0,2
    800001bc:	5e771063          	bne	x14,x7,8000079c <fail>

00000000800001c0 <test_4>:
    800001c0:	00400193          	addi	x3,x0,4
    800001c4:	00100093          	addi	x1,x0,1
    800001c8:	00700113          	addi	x2,x0,7
    800001cc:	0020973b          	sllw	x14,x1,x2
    800001d0:	08000393          	addi	x7,x0,128
    800001d4:	5c771463          	bne	x14,x7,8000079c <fail>

00000000800001d8 <test_5>:
    800001d8:	00500193          	addi	x3,x0,5
    800001dc:	00100093          	addi	x1,x0,1
    800001e0:	00e00113          	addi	x2,x0,14
    800001e4:	0020973b          	sllw	x14,x1,x2
    800001e8:	000043b7          	lui	x7,0x4
    800001ec:	5a771863          	bne	x14,x7,8000079c <fail>

00000000800001f0 <test_6>:
    800001f0:	00600193          	addi	x3,x0,6
    800001f4:	00100093          	addi	x1,x0,1
    800001f8:	01f00113          	addi	x2,x0,31
    800001fc:	0020973b          	sllw	x14,x1,x2
    80000200:	800003b7          	lui	x7,0x80000
    80000204:	58771c63          	bne	x14,x7,8000079c <fail>

0000000080000208 <test_7>:
    80000208:	00700193          	addi	x3,x0,7
    8000020c:	fff00093          	addi	x1,x0,-1
    80000210:	00000113          	addi	x2,x0,0
    80000214:	0020973b          	sllw	x14,x1,x2
    80000218:	fff00393          	addi	x7,x0,-1
    8000021c:	58771063          	bne	x14,x7,8000079c <fail>

0000000080000220 <test_8>:
    80000220:	00800193          	addi	x3,x0,8
    80000224:	fff00093          	addi	x1,x0,-1
    80000228:	00100113          	addi	x2,x0,1
    8000022c:	0020973b          	sllw	x14,x1,x2
    80000230:	ffe00393          	addi	x7,x0,-2
    80000234:	56771463          	bne	x14,x7,8000079c <fail>

0000000080000238 <test_9>:
    80000238:	00900193          	addi	x3,x0,9
    8000023c:	fff00093          	addi	x1,x0,-1
    80000240:	00700113          	addi	x2,x0,7
    80000244:	0020973b          	sllw	x14,x1,x2
    80000248:	f8000393          	addi	x7,x0,-128
    8000024c:	54771863          	bne	x14,x7,8000079c <fail>

0000000080000250 <test_10>:
    80000250:	00a00193          	addi	x3,x0,10
    80000254:	fff00093          	addi	x1,x0,-1
    80000258:	00e00113          	addi	x2,x0,14
    8000025c:	0020973b          	sllw	x14,x1,x2
    80000260:	ffffc3b7          	lui	x7,0xffffc
    80000264:	52771c63          	bne	x14,x7,8000079c <fail>

0000000080000268 <test_11>:
    80000268:	00b00193          	addi	x3,x0,11
    8000026c:	fff00093          	addi	x1,x0,-1
    80000270:	01f00113          	addi	x2,x0,31
    80000274:	0020973b          	sllw	x14,x1,x2
    80000278:	800003b7          	lui	x7,0x80000
    8000027c:	52771063          	bne	x14,x7,8000079c <fail>

0000000080000280 <test_12>:
    80000280:	00c00193          	addi	x3,x0,12
    80000284:	212120b7          	lui	x1,0x21212
    80000288:	1210809b          	addiw	x1,x1,289 # 21212121 <_start-0x5edededf>
    8000028c:	00000113          	addi	x2,x0,0
    80000290:	0020973b          	sllw	x14,x1,x2
    80000294:	212123b7          	lui	x7,0x21212
    80000298:	1213839b          	addiw	x7,x7,289 # 21212121 <_start-0x5edededf>
    8000029c:	50771063          	bne	x14,x7,8000079c <fail>

00000000800002a0 <test_13>:
    800002a0:	00d00193          	addi	x3,x0,13
    800002a4:	212120b7          	lui	x1,0x21212
    800002a8:	1210809b          	addiw	x1,x1,289 # 21212121 <_start-0x5edededf>
    800002ac:	00100113          	addi	x2,x0,1
    800002b0:	0020973b          	sllw	x14,x1,x2
    800002b4:	424243b7          	lui	x7,0x42424
    800002b8:	2423839b          	addiw	x7,x7,578 # 42424242 <_start-0x3dbdbdbe>
    800002bc:	4e771063          	bne	x14,x7,8000079c <fail>

00000000800002c0 <test_14>:
    800002c0:	00e00193          	addi	x3,x0,14
    800002c4:	212120b7          	lui	x1,0x21212
    800002c8:	1210809b          	addiw	x1,x1,289 # 21212121 <_start-0x5edededf>
    800002cc:	00700113          	addi	x2,x0,7
    800002d0:	0020973b          	sllw	x14,x1,x2
    800002d4:	909093b7          	lui	x7,0x90909
    800002d8:	0803839b          	addiw	x7,x7,128 # ffffffff90909080 <_end+0xffffffff10907080>
    800002dc:	4c771063          	bne	x14,x7,8000079c <fail>

00000000800002e0 <test_15>:
    800002e0:	00f00193          	addi	x3,x0,15
    800002e4:	212120b7          	lui	x1,0x21212
    800002e8:	1210809b          	addiw	x1,x1,289 # 21212121 <_start-0x5edededf>
    800002ec:	00e00113          	addi	x2,x0,14
    800002f0:	0020973b          	sllw	x14,x1,x2
    800002f4:	484843b7          	lui	x7,0x48484
    800002f8:	4a771263          	bne	x14,x7,8000079c <fail>

00000000800002fc <test_16>:
    800002fc:	01000193          	addi	x3,x0,16
    80000300:	212120b7          	lui	x1,0x21212
    80000304:	1210809b          	addiw	x1,x1,289 # 21212121 <_start-0x5edededf>
    80000308:	01f00113          	addi	x2,x0,31
    8000030c:	0020973b          	sllw	x14,x1,x2
    80000310:	800003b7          	lui	x7,0x80000
    80000314:	48771463          	bne	x14,x7,8000079c <fail>

0000000080000318 <test_17>:
    80000318:	01100193          	addi	x3,x0,17
    8000031c:	212120b7          	lui	x1,0x21212
    80000320:	1210809b          	addiw	x1,x1,289 # 21212121 <_start-0x5edededf>
    80000324:	fe000113          	addi	x2,x0,-32
    80000328:	0020973b          	sllw	x14,x1,x2
    8000032c:	212123b7          	lui	x7,0x21212
    80000330:	1213839b          	addiw	x7,x7,289 # 21212121 <_start-0x5edededf>
    80000334:	46771463          	bne	x14,x7,8000079c <fail>

0000000080000338 <test_18>:
    80000338:	01200193          	addi	x3,x0,18
    8000033c:	212120b7          	lui	x1,0x21212
    80000340:	1210809b          	addiw	x1,x1,289 # 21212121 <_start-0x5edededf>
    80000344:	fe100113          	addi	x2,x0,-31
    80000348:	0020973b          	sllw	x14,x1,x2
    8000034c:	424243b7          	lui	x7,0x42424
    80000350:	2423839b          	addiw	x7,x7,578 # 42424242 <_start-0x3dbdbdbe>
    80000354:	44771463          	bne	x14,x7,8000079c <fail>

0000000080000358 <test_19>:
    80000358:	01300193          	addi	x3,x0,19
    8000035c:	212120b7          	lui	x1,0x21212
    80000360:	1210809b          	addiw	x1,x1,289 # 21212121 <_start-0x5edededf>
    80000364:	fe700113          	addi	x2,x0,-25
    80000368:	0020973b          	sllw	x14,x1,x2
    8000036c:	909093b7          	lui	x7,0x90909
    80000370:	0803839b          	addiw	x7,x7,128 # ffffffff90909080 <_end+0xffffffff10907080>
    80000374:	42771463          	bne	x14,x7,8000079c <fail>

0000000080000378 <test_20>:
    80000378:	01400193          	addi	x3,x0,20
    8000037c:	212120b7          	lui	x1,0x21212
    80000380:	1210809b          	addiw	x1,x1,289 # 21212121 <_start-0x5edededf>
    80000384:	fee00113          	addi	x2,x0,-18
    80000388:	0020973b          	sllw	x14,x1,x2
    8000038c:	484843b7          	lui	x7,0x48484
    80000390:	40771663          	bne	x14,x7,8000079c <fail>

0000000080000394 <test_21>:
    80000394:	01500193          	addi	x3,x0,21
    80000398:	212120b7          	lui	x1,0x21212
    8000039c:	1210809b          	addiw	x1,x1,289 # 21212121 <_start-0x5edededf>
    800003a0:	fff00113          	addi	x2,x0,-1
    800003a4:	0020973b          	sllw	x14,x1,x2
    800003a8:	800003b7          	lui	x7,0x80000
    800003ac:	3e771863          	bne	x14,x7,8000079c <fail>

00000000800003b0 <test_44>:
    800003b0:	02c00193          	addi	x3,x0,44
    800003b4:	fff120b7          	lui	x1,0xfff12
    800003b8:	3450809b          	addiw	x1,x1,837 # fffffffffff12345 <_end+0xffffffff7ff10345>
    800003bc:	00c09093          	slli	x1,x1,0xc
    800003c0:	67808093          	addi	x1,x1,1656
    800003c4:	00000113          	addi	x2,x0,0
    800003c8:	0020973b          	sllw	x14,x1,x2
    800003cc:	123453b7          	lui	x7,0x12345
    800003d0:	6783839b          	addiw	x7,x7,1656 # 12345678 <_start-0x6dcba988>
    800003d4:	3c771463          	bne	x14,x7,8000079c <fail>

00000000800003d8 <test_45>:
    800003d8:	02d00193          	addi	x3,x0,45
    800003dc:	fff120b7          	lui	x1,0xfff12
    800003e0:	3450809b          	addiw	x1,x1,837 # fffffffffff12345 <_end+0xffffffff7ff10345>
    800003e4:	00c09093          	slli	x1,x1,0xc
    800003e8:	67808093          	addi	x1,x1,1656
    800003ec:	00400113          	addi	x2,x0,4
    800003f0:	0020973b          	sllw	x14,x1,x2
    800003f4:	234563b7          	lui	x7,0x23456
    800003f8:	7803839b          	addiw	x7,x7,1920 # 23456780 <_start-0x5cba9880>
    800003fc:	3a771063          	bne	x14,x7,8000079c <fail>

0000000080000400 <test_46>:
    80000400:	02e00193          	addi	x3,x0,46
    80000404:	000920b7          	lui	x1,0x92
    80000408:	3450809b          	addiw	x1,x1,837 # 92345 <_start-0x7ff6dcbb>
    8000040c:	00c09093          	slli	x1,x1,0xc
    80000410:	67808093          	addi	x1,x1,1656
    80000414:	00000113          	addi	x2,x0,0
    80000418:	0020973b          	sllw	x14,x1,x2
    8000041c:	923453b7          	lui	x7,0x92345
    80000420:	6783839b          	addiw	x7,x7,1656 # ffffffff92345678 <_end+0xffffffff12343678>
    80000424:	36771c63          	bne	x14,x7,8000079c <fail>

0000000080000428 <test_47>:
    80000428:	02f00193          	addi	x3,x0,47
    8000042c:	000990b7          	lui	x1,0x99
    80000430:	3450809b          	addiw	x1,x1,837 # 99345 <_start-0x7ff66cbb>
    80000434:	00c09093          	slli	x1,x1,0xc
    80000438:	67808093          	addi	x1,x1,1656
    8000043c:	00400113          	addi	x2,x0,4
    80000440:	0020973b          	sllw	x14,x1,x2
    80000444:	934563b7          	lui	x7,0x93456
    80000448:	7803839b          	addiw	x7,x7,1920 # ffffffff93456780 <_end+0xffffffff13454780>
    8000044c:	34771863          	bne	x14,x7,8000079c <fail>

0000000080000450 <test_22>:
    80000450:	01600193          	addi	x3,x0,22
    80000454:	00100093          	addi	x1,x0,1
    80000458:	00700113          	addi	x2,x0,7
    8000045c:	002090bb          	sllw	x1,x1,x2
    80000460:	08000393          	addi	x7,x0,128
    80000464:	32709c63          	bne	x1,x7,8000079c <fail>

0000000080000468 <test_23>:
    80000468:	01700193          	addi	x3,x0,23
    8000046c:	00100093          	addi	x1,x0,1
    80000470:	00e00113          	addi	x2,x0,14
    80000474:	0020913b          	sllw	x2,x1,x2
    80000478:	000043b7          	lui	x7,0x4
    8000047c:	32711063          	bne	x2,x7,8000079c <fail>

0000000080000480 <test_24>:
    80000480:	01800193          	addi	x3,x0,24
    80000484:	00300093          	addi	x1,x0,3
    80000488:	001090bb          	sllw	x1,x1,x1
    8000048c:	01800393          	addi	x7,x0,24
    80000490:	30709663          	bne	x1,x7,8000079c <fail>

0000000080000494 <test_25>:
    80000494:	01900193          	addi	x3,x0,25
    80000498:	00000213          	addi	x4,x0,0
    8000049c:	00100093          	addi	x1,x0,1
    800004a0:	00700113          	addi	x2,x0,7
    800004a4:	0020973b          	sllw	x14,x1,x2
    800004a8:	00070313          	addi	x6,x14,0
    800004ac:	00120213          	addi	x4,x4,1 # 1 <_start-0x7fffffff>
    800004b0:	00200293          	addi	x5,x0,2
    800004b4:	fe5214e3          	bne	x4,x5,8000049c <test_25+0x8>
    800004b8:	08000393          	addi	x7,x0,128
    800004bc:	2e731063          	bne	x6,x7,8000079c <fail>

00000000800004c0 <test_26>:
    800004c0:	01a00193          	addi	x3,x0,26
    800004c4:	00000213          	addi	x4,x0,0
    800004c8:	00100093          	addi	x1,x0,1
    800004cc:	00e00113          	addi	x2,x0,14
    800004d0:	0020973b          	sllw	x14,x1,x2
    800004d4:	00000013          	addi	x0,x0,0
    800004d8:	00070313          	addi	x6,x14,0
    800004dc:	00120213          	addi	x4,x4,1 # 1 <_start-0x7fffffff>
    800004e0:	00200293          	addi	x5,x0,2
    800004e4:	fe5212e3          	bne	x4,x5,800004c8 <test_26+0x8>
    800004e8:	000043b7          	lui	x7,0x4
    800004ec:	2a731863          	bne	x6,x7,8000079c <fail>

00000000800004f0 <test_27>:
    800004f0:	01b00193          	addi	x3,x0,27
    800004f4:	00000213          	addi	x4,x0,0
    800004f8:	00100093          	addi	x1,x0,1
    800004fc:	01f00113          	addi	x2,x0,31
    80000500:	0020973b          	sllw	x14,x1,x2
    80000504:	00000013          	addi	x0,x0,0
    80000508:	00000013          	addi	x0,x0,0
    8000050c:	00070313          	addi	x6,x14,0
    80000510:	00120213          	addi	x4,x4,1 # 1 <_start-0x7fffffff>
    80000514:	00200293          	addi	x5,x0,2
    80000518:	fe5210e3          	bne	x4,x5,800004f8 <test_27+0x8>
    8000051c:	800003b7          	lui	x7,0x80000
    80000520:	26731e63          	bne	x6,x7,8000079c <fail>

0000000080000524 <test_28>:
    80000524:	01c00193          	addi	x3,x0,28
    80000528:	00000213          	addi	x4,x0,0
    8000052c:	00100093          	addi	x1,x0,1
    80000530:	00700113          	addi	x2,x0,7
    80000534:	0020973b          	sllw	x14,x1,x2
    80000538:	00120213          	addi	x4,x4,1 # 1 <_start-0x7fffffff>
    8000053c:	00200293          	addi	x5,x0,2
    80000540:	fe5216e3          	bne	x4,x5,8000052c <test_28+0x8>
    80000544:	08000393          	addi	x7,x0,128
    80000548:	24771a63          	bne	x14,x7,8000079c <fail>

000000008000054c <test_29>:
    8000054c:	01d00193          	addi	x3,x0,29
    80000550:	00000213          	addi	x4,x0,0
    80000554:	00100093          	addi	x1,x0,1
    80000558:	00e00113          	addi	x2,x0,14
    8000055c:	00000013          	addi	x0,x0,0
    80000560:	0020973b          	sllw	x14,x1,x2
    80000564:	00120213          	addi	x4,x4,1 # 1 <_start-0x7fffffff>
    80000568:	00200293          	addi	x5,x0,2
    8000056c:	fe5214e3          	bne	x4,x5,80000554 <test_29+0x8>
    80000570:	000043b7          	lui	x7,0x4
    80000574:	22771463          	bne	x14,x7,8000079c <fail>

0000000080000578 <test_30>:
    80000578:	01e00193          	addi	x3,x0,30
    8000057c:	00000213          	addi	x4,x0,0
    80000580:	00100093          	addi	x1,x0,1
    80000584:	01f00113          	addi	x2,x0,31
    80000588:	00000013          	addi	x0,x0,0
    8000058c:	00000013          	addi	x0,x0,0
    80000590:	0020973b          	sllw	x14,x1,x2
    80000594:	00120213          	addi	x4,x4,1 # 1 <_start-0x7fffffff>
    80000598:	00200293          	addi	x5,x0,2
    8000059c:	fe5212e3          	bne	x4,x5,80000580 <test_30+0x8>
    800005a0:	800003b7          	lui	x7,0x80000
    800005a4:	1e771c63          	bne	x14,x7,8000079c <fail>

00000000800005a8 <test_31>:
    800005a8:	01f00193          	addi	x3,x0,31
    800005ac:	00000213          	addi	x4,x0,0
    800005b0:	00100093          	addi	x1,x0,1
    800005b4:	00000013          	addi	x0,x0,0
    800005b8:	00700113          	addi	x2,x0,7
    800005bc:	0020973b          	sllw	x14,x1,x2
    800005c0:	00120213          	addi	x4,x4,1 # 1 <_start-0x7fffffff>
    800005c4:	00200293          	addi	x5,x0,2
    800005c8:	fe5214e3          	bne	x4,x5,800005b0 <test_31+0x8>
    800005cc:	08000393          	addi	x7,x0,128
    800005d0:	1c771663          	bne	x14,x7,8000079c <fail>

00000000800005d4 <test_32>:
    800005d4:	02000193          	addi	x3,x0,32
    800005d8:	00000213          	addi	x4,x0,0
    800005dc:	00100093          	addi	x1,x0,1
    800005e0:	00000013          	addi	x0,x0,0
    800005e4:	00e00113          	addi	x2,x0,14
    800005e8:	00000013          	addi	x0,x0,0
    800005ec:	0020973b          	sllw	x14,x1,x2
    800005f0:	00120213          	addi	x4,x4,1 # 1 <_start-0x7fffffff>
    800005f4:	00200293          	addi	x5,x0,2
    800005f8:	fe5212e3          	bne	x4,x5,800005dc <test_32+0x8>
    800005fc:	000043b7          	lui	x7,0x4
    80000600:	18771e63          	bne	x14,x7,8000079c <fail>

0000000080000604 <test_33>:
    80000604:	02100193          	addi	x3,x0,33
    80000608:	00000213          	addi	x4,x0,0
    8000060c:	00100093          	addi	x1,x0,1
    80000610:	00000013          	addi	x0,x0,0
    80000614:	00000013          	addi	x0,x0,0
    80000618:	01f00113          	addi	x2,x0,31
    8000061c:	0020973b          	sllw	x14,x1,x2
    80000620:	00120213          	addi	x4,x4,1 # 1 <_start-0x7fffffff>
    80000624:	00200293          	addi	x5,x0,2
    80000628:	fe5212e3          	bne	x4,x5,8000060c <test_33+0x8>
    8000062c:	800003b7          	lui	x7,0x80000
    80000630:	16771663          	bne	x14,x7,8000079c <fail>

0000000080000634 <test_34>:
    80000634:	02200193          	addi	x3,x0,34
    80000638:	00000213          	addi	x4,x0,0
    8000063c:	00700113          	addi	x2,x0,7
    80000640:	00100093          	addi	x1,x0,1
    80000644:	0020973b          	sllw	x14,x1,x2
    80000648:	00120213          	addi	x4,x4,1 # 1 <_start-0x7fffffff>
    8000064c:	00200293          	addi	x5,x0,2
    80000650:	fe5216e3          	bne	x4,x5,8000063c <test_34+0x8>
    80000654:	08000393          	addi	x7,x0,128
    80000658:	14771263          	bne	x14,x7,8000079c <fail>

000000008000065c <test_35>:
    8000065c:	02300193          	addi	x3,x0,35
    80000660:	00000213          	addi	x4,x0,0
    80000664:	00e00113          	addi	x2,x0,14
    80000668:	00100093          	addi	x1,x0,1
    8000066c:	00000013          	addi	x0,x0,0
    80000670:	0020973b          	sllw	x14,x1,x2
    80000674:	00120213          	addi	x4,x4,1 # 1 <_start-0x7fffffff>
    80000678:	00200293          	addi	x5,x0,2
    8000067c:	fe5214e3          	bne	x4,x5,80000664 <test_35+0x8>
    80000680:	000043b7          	lui	x7,0x4
    80000684:	10771c63          	bne	x14,x7,8000079c <fail>

0000000080000688 <test_36>:
    80000688:	02400193          	addi	x3,x0,36
    8000068c:	00000213          	addi	x4,x0,0
    80000690:	01f00113          	addi	x2,x0,31
    80000694:	00100093          	addi	x1,x0,1
    80000698:	00000013          	addi	x0,x0,0
    8000069c:	00000013          	addi	x0,x0,0
    800006a0:	0020973b          	sllw	x14,x1,x2
    800006a4:	00120213          	addi	x4,x4,1 # 1 <_start-0x7fffffff>
    800006a8:	00200293          	addi	x5,x0,2
    800006ac:	fe5212e3          	bne	x4,x5,80000690 <test_36+0x8>
    800006b0:	800003b7          	lui	x7,0x80000
    800006b4:	0e771463          	bne	x14,x7,8000079c <fail>

00000000800006b8 <test_37>:
    800006b8:	02500193          	addi	x3,x0,37
    800006bc:	00000213          	addi	x4,x0,0
    800006c0:	00700113          	addi	x2,x0,7
    800006c4:	00000013          	addi	x0,x0,0
    800006c8:	00100093          	addi	x1,x0,1
    800006cc:	0020973b          	sllw	x14,x1,x2
    800006d0:	00120213          	addi	x4,x4,1 # 1 <_start-0x7fffffff>
    800006d4:	00200293          	addi	x5,x0,2
    800006d8:	fe5214e3          	bne	x4,x5,800006c0 <test_37+0x8>
    800006dc:	08000393          	addi	x7,x0,128
    800006e0:	0a771e63          	bne	x14,x7,8000079c <fail>

00000000800006e4 <test_38>:
    800006e4:	02600193          	addi	x3,x0,38
    800006e8:	00000213          	addi	x4,x0,0
    800006ec:	00e00113          	addi	x2,x0,14
    800006f0:	00000013          	addi	x0,x0,0
    800006f4:	00100093          	addi	x1,x0,1
    800006f8:	00000013          	addi	x0,x0,0
    800006fc:	0020973b          	sllw	x14,x1,x2
    80000700:	00120213          	addi	x4,x4,1 # 1 <_start-0x7fffffff>
    80000704:	00200293          	addi	x5,x0,2
    80000708:	fe5212e3          	bne	x4,x5,800006ec <test_38+0x8>
    8000070c:	000043b7          	lui	x7,0x4
    80000710:	08771663          	bne	x14,x7,8000079c <fail>

0000000080000714 <test_39>:
    80000714:	02700193          	addi	x3,x0,39
    80000718:	00000213          	addi	x4,x0,0
    8000071c:	01f00113          	addi	x2,x0,31
    80000720:	00000013          	addi	x0,x0,0
    80000724:	00000013          	addi	x0,x0,0
    80000728:	00100093          	addi	x1,x0,1
    8000072c:	0020973b          	sllw	x14,x1,x2
    80000730:	00120213          	addi	x4,x4,1 # 1 <_start-0x7fffffff>
    80000734:	00200293          	addi	x5,x0,2
    80000738:	fe5212e3          	bne	x4,x5,8000071c <test_39+0x8>
    8000073c:	800003b7          	lui	x7,0x80000
    80000740:	04771e63          	bne	x14,x7,8000079c <fail>

0000000080000744 <test_40>:
    80000744:	02800193          	addi	x3,x0,40
    80000748:	00f00093          	addi	x1,x0,15
    8000074c:	0010113b          	sllw	x2,x0,x1
    80000750:	00000393          	addi	x7,x0,0
    80000754:	04711463          	bne	x2,x7,8000079c <fail>

0000000080000758 <test_41>:
    80000758:	02900193          	addi	x3,x0,41
    8000075c:	02000093          	addi	x1,x0,32
    80000760:	0000913b          	sllw	x2,x1,x0
    80000764:	02000393          	addi	x7,x0,32
    80000768:	02711a63          	bne	x2,x7,8000079c <fail>

000000008000076c <test_42>:
    8000076c:	02a00193          	addi	x3,x0,42
    80000770:	000010bb          	sllw	x1,x0,x0
    80000774:	00000393          	addi	x7,x0,0
    80000778:	02709263          	bne	x1,x7,8000079c <fail>

000000008000077c <test_43>:
    8000077c:	02b00193          	addi	x3,x0,43
    80000780:	40000093          	addi	x1,x0,1024
    80000784:	00001137          	lui	x2,0x1
    80000788:	8001011b          	addiw	x2,x2,-2048 # 800 <_start-0x7ffff800>
    8000078c:	0020903b          	sllw	x0,x1,x2
    80000790:	00000393          	addi	x7,x0,0
    80000794:	00701463          	bne	x0,x7,8000079c <fail>
    80000798:	02301063          	bne	x0,x3,800007b8 <pass>

000000008000079c <fail>:
    8000079c:	0ff0000f          	fence	iorw,iorw
    800007a0:	00018063          	beq	x3,x0,800007a0 <fail+0x4>
    800007a4:	00119193          	slli	x3,x3,0x1
    800007a8:	0011e193          	ori	x3,x3,1
    800007ac:	05d00893          	addi	x17,x0,93
    800007b0:	00018513          	addi	x10,x3,0
    800007b4:	00000073          	ecall

00000000800007b8 <pass>:
    800007b8:	0ff0000f          	fence	iorw,iorw
    800007bc:	00100193          	addi	x3,x0,1
    800007c0:	05d00893          	addi	x17,x0,93
    800007c4:	00000513          	addi	x10,x0,0
    800007c8:	00000073          	ecall
    800007cc:	c0001073          	unimp
	...
