
/home/clo91eaf/ysyx-workbench/am-kernels/tests/cpu-tests/build/hello-str-riscv64-nemu.elf:     file format elf64-littleriscv


Disassembly of section .text:

0000000080000000 <_start>:
    80000000:	00000413          	li	s0,0
    80000004:	00009117          	auipc	sp,0x9
    80000008:	ffc10113          	addi	sp,sp,-4 # 80009000 <_end>
    8000000c:	0e8000ef          	jal	ra,800000f4 <_trm_init>

0000000080000010 <check>:
    80000010:	00050463          	beqz	a0,80000018 <check+0x8>
    80000014:	00008067          	ret
    80000018:	ff010113          	addi	sp,sp,-16
    8000001c:	00100513          	li	a0,1
    80000020:	00113423          	sd	ra,8(sp)
    80000024:	0c4000ef          	jal	ra,800000e8 <halt>

0000000080000028 <main>:
    80000028:	ff010113          	addi	sp,sp,-16
    8000002c:	00813023          	sd	s0,0(sp)
    80000030:	00000417          	auipc	s0,0x0
    80000034:	34840413          	addi	s0,s0,840 # 80000378 <buf>
    80000038:	00000617          	auipc	a2,0x0
    8000003c:	2f060613          	addi	a2,a2,752 # 80000328 <_etext+0x4>
    80000040:	00000597          	auipc	a1,0x0
    80000044:	2f858593          	addi	a1,a1,760 # 80000338 <_etext+0x14>
    80000048:	00040513          	mv	a0,s0
    8000004c:	00113423          	sd	ra,8(sp)
    80000050:	144000ef          	jal	ra,80000194 <sprintf>
    80000054:	00000597          	auipc	a1,0x0
    80000058:	2d458593          	addi	a1,a1,724 # 80000328 <_etext+0x4>
    8000005c:	00040513          	mv	a0,s0
    80000060:	0dc000ef          	jal	ra,8000013c <strcmp>
    80000064:	00153513          	seqz	a0,a0
    80000068:	fa9ff0ef          	jal	ra,80000010 <check>
    8000006c:	00200713          	li	a4,2
    80000070:	00100693          	li	a3,1
    80000074:	00100613          	li	a2,1
    80000078:	00000597          	auipc	a1,0x0
    8000007c:	2c858593          	addi	a1,a1,712 # 80000340 <_etext+0x1c>
    80000080:	00040513          	mv	a0,s0
    80000084:	110000ef          	jal	ra,80000194 <sprintf>
    80000088:	00000597          	auipc	a1,0x0
    8000008c:	2c858593          	addi	a1,a1,712 # 80000350 <_etext+0x2c>
    80000090:	00040513          	mv	a0,s0
    80000094:	0a8000ef          	jal	ra,8000013c <strcmp>
    80000098:	00153513          	seqz	a0,a0
    8000009c:	f75ff0ef          	jal	ra,80000010 <check>
    800000a0:	00c00713          	li	a4,12
    800000a4:	00a00693          	li	a3,10
    800000a8:	00200613          	li	a2,2
    800000ac:	00000597          	auipc	a1,0x0
    800000b0:	29458593          	addi	a1,a1,660 # 80000340 <_etext+0x1c>
    800000b4:	00040513          	mv	a0,s0
    800000b8:	0dc000ef          	jal	ra,80000194 <sprintf>
    800000bc:	00000597          	auipc	a1,0x0
    800000c0:	2a458593          	addi	a1,a1,676 # 80000360 <_etext+0x3c>
    800000c4:	00040513          	mv	a0,s0
    800000c8:	074000ef          	jal	ra,8000013c <strcmp>
    800000cc:	00153513          	seqz	a0,a0
    800000d0:	f41ff0ef          	jal	ra,80000010 <check>
    800000d4:	00813083          	ld	ra,8(sp)
    800000d8:	00013403          	ld	s0,0(sp)
    800000dc:	00000513          	li	a0,0
    800000e0:	01010113          	addi	sp,sp,16
    800000e4:	00008067          	ret

00000000800000e8 <halt>:
    800000e8:	00050513          	mv	a0,a0
    800000ec:	00100073          	ebreak
    800000f0:	0000006f          	j	800000f0 <halt+0x8>

00000000800000f4 <_trm_init>:
    800000f4:	ff010113          	addi	sp,sp,-16
    800000f8:	00000517          	auipc	a0,0x0
    800000fc:	27850513          	addi	a0,a0,632 # 80000370 <mainargs>
    80000100:	00113423          	sd	ra,8(sp)
    80000104:	f25ff0ef          	jal	ra,80000028 <main>
    80000108:	00050513          	mv	a0,a0
    8000010c:	00100073          	ebreak
    80000110:	0000006f          	j	80000110 <_trm_init+0x1c>

0000000080000114 <strlen>:
    80000114:	00054783          	lbu	a5,0(a0)
    80000118:	00050713          	mv	a4,a0
    8000011c:	00000513          	li	a0,0
    80000120:	00078c63          	beqz	a5,80000138 <strlen+0x24>
    80000124:	00150513          	addi	a0,a0,1
    80000128:	00a707b3          	add	a5,a4,a0
    8000012c:	0007c783          	lbu	a5,0(a5)
    80000130:	fe079ae3          	bnez	a5,80000124 <strlen+0x10>
    80000134:	00008067          	ret
    80000138:	00008067          	ret

000000008000013c <strcmp>:
    8000013c:	00054703          	lbu	a4,0(a0)
    80000140:	00000793          	li	a5,0
    80000144:	00071a63          	bnez	a4,80000158 <strcmp+0x1c>
    80000148:	0300006f          	j	80000178 <strcmp+0x3c>
    8000014c:	04d71063          	bne	a4,a3,8000018c <strcmp+0x50>
    80000150:	00064703          	lbu	a4,0(a2)
    80000154:	02070063          	beqz	a4,80000174 <strcmp+0x38>
    80000158:	00f586b3          	add	a3,a1,a5
    8000015c:	0006c683          	lbu	a3,0(a3)
    80000160:	00178793          	addi	a5,a5,1
    80000164:	00f50633          	add	a2,a0,a5
    80000168:	fe0692e3          	bnez	a3,8000014c <strcmp+0x10>
    8000016c:	0007051b          	sext.w	a0,a4
    80000170:	00008067          	ret
    80000174:	00f585b3          	add	a1,a1,a5
    80000178:	0005c703          	lbu	a4,0(a1)
    8000017c:	00e037b3          	snez	a5,a4
    80000180:	40f007b3          	neg	a5,a5
    80000184:	00f77533          	and	a0,a4,a5
    80000188:	00008067          	ret
    8000018c:	40d7053b          	subw	a0,a4,a3
    80000190:	00008067          	ret

0000000080000194 <sprintf>:
    80000194:	f7010113          	addi	sp,sp,-144
    80000198:	0005c303          	lbu	t1,0(a1)
    8000019c:	06f13c23          	sd	a5,120(sp)
    800001a0:	06010793          	addi	a5,sp,96
    800001a4:	00f13423          	sd	a5,8(sp)
    800001a8:	04113c23          	sd	ra,88(sp)
    800001ac:	06c13023          	sd	a2,96(sp)
    800001b0:	06d13423          	sd	a3,104(sp)
    800001b4:	06e13823          	sd	a4,112(sp)
    800001b8:	09013023          	sd	a6,128(sp)
    800001bc:	09113423          	sd	a7,136(sp)
    800001c0:	00050793          	mv	a5,a0
    800001c4:	04030063          	beqz	t1,80000204 <sprintf+0x70>
    800001c8:	00000613          	li	a2,0
    800001cc:	02500e93          	li	t4,37
    800001d0:	06400293          	li	t0,100
    800001d4:	00a00e13          	li	t3,10
    800001d8:	03000393          	li	t2,48
    800001dc:	02d00093          	li	ra,45
    800001e0:	07300f93          	li	t6,115
    800001e4:	06300f13          	li	t5,99
    800001e8:	03d30a63          	beq	t1,t4,8000021c <sprintf+0x88>
    800001ec:	00678023          	sb	t1,0(a5)
    800001f0:	00178793          	addi	a5,a5,1
    800001f4:	00160613          	addi	a2,a2,1
    800001f8:	00c58733          	add	a4,a1,a2
    800001fc:	00074303          	lbu	t1,0(a4)
    80000200:	fe0314e3          	bnez	t1,800001e8 <sprintf+0x54>
    80000204:	00078023          	sb	zero,0(a5)
    80000208:	f0dff0ef          	jal	ra,80000114 <strlen>
    8000020c:	05813083          	ld	ra,88(sp)
    80000210:	0005051b          	sext.w	a0,a0
    80000214:	09010113          	addi	sp,sp,144
    80000218:	00008067          	ret
    8000021c:	00160613          	addi	a2,a2,1
    80000220:	00c58733          	add	a4,a1,a2
    80000224:	00074703          	lbu	a4,0(a4)
    80000228:	04570c63          	beq	a4,t0,80000280 <sprintf+0xec>
    8000022c:	03f70263          	beq	a4,t6,80000250 <sprintf+0xbc>
    80000230:	fde712e3          	bne	a4,t5,800001f4 <sprintf+0x60>
    80000234:	00813703          	ld	a4,8(sp)
    80000238:	00178793          	addi	a5,a5,1
    8000023c:	00072683          	lw	a3,0(a4)
    80000240:	00870713          	addi	a4,a4,8
    80000244:	00e13423          	sd	a4,8(sp)
    80000248:	fed78fa3          	sb	a3,-1(a5)
    8000024c:	fa9ff06f          	j	800001f4 <sprintf+0x60>
    80000250:	00813703          	ld	a4,8(sp)
    80000254:	00073683          	ld	a3,0(a4)
    80000258:	00870713          	addi	a4,a4,8
    8000025c:	00e13423          	sd	a4,8(sp)
    80000260:	0006c703          	lbu	a4,0(a3)
    80000264:	f80708e3          	beqz	a4,800001f4 <sprintf+0x60>
    80000268:	00e78023          	sb	a4,0(a5)
    8000026c:	0016c703          	lbu	a4,1(a3)
    80000270:	00168693          	addi	a3,a3,1
    80000274:	00178793          	addi	a5,a5,1
    80000278:	fe0718e3          	bnez	a4,80000268 <sprintf+0xd4>
    8000027c:	f79ff06f          	j	800001f4 <sprintf+0x60>
    80000280:	00813703          	ld	a4,8(sp)
    80000284:	00178313          	addi	t1,a5,1
    80000288:	00072803          	lw	a6,0(a4)
    8000028c:	00870713          	addi	a4,a4,8
    80000290:	00e13423          	sd	a4,8(sp)
    80000294:	00084a63          	bltz	a6,800002a8 <sprintf+0x114>
    80000298:	08081263          	bnez	a6,8000031c <sprintf+0x188>
    8000029c:	00778023          	sb	t2,0(a5)
    800002a0:	00030793          	mv	a5,t1
    800002a4:	f51ff06f          	j	800001f4 <sprintf+0x60>
    800002a8:	00178023          	sb	ra,0(a5)
    800002ac:	4100083b          	negw	a6,a6
    800002b0:	01010893          	addi	a7,sp,16
    800002b4:	00000693          	li	a3,0
    800002b8:	03c8673b          	remw	a4,a6,t3
    800002bc:	00068793          	mv	a5,a3
    800002c0:	00488893          	addi	a7,a7,4
    800002c4:	0016869b          	addiw	a3,a3,1
    800002c8:	03c8483b          	divw	a6,a6,t3
    800002cc:	fee8ae23          	sw	a4,-4(a7)
    800002d0:	fe0814e3          	bnez	a6,800002b8 <sprintf+0x124>
    800002d4:	00269693          	slli	a3,a3,0x2
    800002d8:	02079793          	slli	a5,a5,0x20
    800002dc:	01010893          	addi	a7,sp,16
    800002e0:	ff868693          	addi	a3,a3,-8
    800002e4:	0207d793          	srli	a5,a5,0x20
    800002e8:	00d886b3          	add	a3,a7,a3
    800002ec:	00030813          	mv	a6,t1
    800002f0:	006788b3          	add	a7,a5,t1
    800002f4:	0100006f          	j	80000304 <sprintf+0x170>
    800002f8:	0006a703          	lw	a4,0(a3)
    800002fc:	00180813          	addi	a6,a6,1
    80000300:	ffc68693          	addi	a3,a3,-4
    80000304:	0307071b          	addiw	a4,a4,48
    80000308:	00e80023          	sb	a4,0(a6)
    8000030c:	ff0896e3          	bne	a7,a6,800002f8 <sprintf+0x164>
    80000310:	00178793          	addi	a5,a5,1
    80000314:	00f307b3          	add	a5,t1,a5
    80000318:	eddff06f          	j	800001f4 <sprintf+0x60>
    8000031c:	00078313          	mv	t1,a5
    80000320:	f91ff06f          	j	800002b0 <sprintf+0x11c>
