
elf/riscv-tests/rv64uzbc/rv64uzbc-p-clmul:     file format elf64-littleriscv


Disassembly of section .text.init:

0000000080000000 <_start>:
    80000000:	0500006f          	jal	x0,80000050 <reset_vector>

0000000080000004 <trap_vector>:
    80000004:	34202f73          	csrrs	x30,mcause,x0
    80000008:	00800f93          	addi	x31,x0,8
    8000000c:	03ff0863          	beq	x30,x31,8000003c <write_tohost>
    80000010:	00900f93          	addi	x31,x0,9
    80000014:	03ff0463          	beq	x30,x31,8000003c <write_tohost>
    80000018:	00b00f93          	addi	x31,x0,11
    8000001c:	03ff0063          	beq	x30,x31,8000003c <write_tohost>
    80000020:	00000f13          	addi	x30,x0,0
    80000024:	000f0463          	beq	x30,x0,8000002c <trap_vector+0x28>
    80000028:	000f0067          	jalr	x0,0(x30)
    8000002c:	34202f73          	csrrs	x30,mcause,x0
    80000030:	000f5463          	bge	x30,x0,80000038 <handle_exception>
    80000034:	0040006f          	jal	x0,80000038 <handle_exception>

0000000080000038 <handle_exception>:
    80000038:	5391e193          	ori	x3,x3,1337

000000008000003c <write_tohost>:
    8000003c:	00001f17          	auipc	x30,0x1
    80000040:	fc3f2223          	sw	x3,-60(x30) # 80001000 <tohost>
    80000044:	00001f17          	auipc	x30,0x1
    80000048:	fc0f2023          	sw	x0,-64(x30) # 80001004 <tohost+0x4>
    8000004c:	ff1ff06f          	jal	x0,8000003c <write_tohost>

0000000080000050 <reset_vector>:
    80000050:	00000093          	addi	x1,x0,0
    80000054:	00000113          	addi	x2,x0,0
    80000058:	00000193          	addi	x3,x0,0
    8000005c:	00000213          	addi	x4,x0,0
    80000060:	00000293          	addi	x5,x0,0
    80000064:	00000313          	addi	x6,x0,0
    80000068:	00000393          	addi	x7,x0,0
    8000006c:	00000413          	addi	x8,x0,0
    80000070:	00000493          	addi	x9,x0,0
    80000074:	00000513          	addi	x10,x0,0
    80000078:	00000593          	addi	x11,x0,0
    8000007c:	00000613          	addi	x12,x0,0
    80000080:	00000693          	addi	x13,x0,0
    80000084:	00000713          	addi	x14,x0,0
    80000088:	00000793          	addi	x15,x0,0
    8000008c:	00000813          	addi	x16,x0,0
    80000090:	00000893          	addi	x17,x0,0
    80000094:	00000913          	addi	x18,x0,0
    80000098:	00000993          	addi	x19,x0,0
    8000009c:	00000a13          	addi	x20,x0,0
    800000a0:	00000a93          	addi	x21,x0,0
    800000a4:	00000b13          	addi	x22,x0,0
    800000a8:	00000b93          	addi	x23,x0,0
    800000ac:	00000c13          	addi	x24,x0,0
    800000b0:	00000c93          	addi	x25,x0,0
    800000b4:	00000d13          	addi	x26,x0,0
    800000b8:	00000d93          	addi	x27,x0,0
    800000bc:	00000e13          	addi	x28,x0,0
    800000c0:	00000e93          	addi	x29,x0,0
    800000c4:	00000f13          	addi	x30,x0,0
    800000c8:	00000f93          	addi	x31,x0,0
    800000cc:	f1402573          	csrrs	x10,mhartid,x0
    800000d0:	00051063          	bne	x10,x0,800000d0 <reset_vector+0x80>
    800000d4:	00000297          	auipc	x5,0x0
    800000d8:	01028293          	addi	x5,x5,16 # 800000e4 <reset_vector+0x94>
    800000dc:	30529073          	csrrw	x0,mtvec,x5
    800000e0:	74445073          	csrrwi	x0,0x744,8
    800000e4:	00000297          	auipc	x5,0x0
    800000e8:	01028293          	addi	x5,x5,16 # 800000f4 <reset_vector+0xa4>
    800000ec:	30529073          	csrrw	x0,mtvec,x5
    800000f0:	18005073          	csrrwi	x0,satp,0
    800000f4:	00000297          	auipc	x5,0x0
    800000f8:	02428293          	addi	x5,x5,36 # 80000118 <reset_vector+0xc8>
    800000fc:	30529073          	csrrw	x0,mtvec,x5
    80000100:	0010029b          	addiw	x5,x0,1
    80000104:	03529293          	slli	x5,x5,0x35
    80000108:	fff28293          	addi	x5,x5,-1
    8000010c:	3b029073          	csrrw	x0,pmpaddr0,x5
    80000110:	01f00293          	addi	x5,x0,31
    80000114:	3a029073          	csrrw	x0,pmpcfg0,x5
    80000118:	30405073          	csrrwi	x0,mie,0
    8000011c:	00000297          	auipc	x5,0x0
    80000120:	01428293          	addi	x5,x5,20 # 80000130 <reset_vector+0xe0>
    80000124:	30529073          	csrrw	x0,mtvec,x5
    80000128:	30205073          	csrrwi	x0,medeleg,0
    8000012c:	30305073          	csrrwi	x0,mideleg,0
    80000130:	00000193          	addi	x3,x0,0
    80000134:	00000297          	auipc	x5,0x0
    80000138:	ed028293          	addi	x5,x5,-304 # 80000004 <trap_vector>
    8000013c:	30529073          	csrrw	x0,mtvec,x5
    80000140:	00100513          	addi	x10,x0,1
    80000144:	01f51513          	slli	x10,x10,0x1f
    80000148:	00055c63          	bge	x10,x0,80000160 <reset_vector+0x110>
    8000014c:	0ff0000f          	fence	iorw,iorw
    80000150:	00100193          	addi	x3,x0,1
    80000154:	05d00893          	addi	x17,x0,93
    80000158:	00000513          	addi	x10,x0,0
    8000015c:	00000073          	ecall
    80000160:	00000293          	addi	x5,x0,0
    80000164:	00028a63          	beq	x5,x0,80000178 <reset_vector+0x128>
    80000168:	10529073          	csrrw	x0,stvec,x5
    8000016c:	0000b2b7          	lui	x5,0xb
    80000170:	1092829b          	addiw	x5,x5,265 # b109 <_start-0x7fff4ef7>
    80000174:	30229073          	csrrw	x0,medeleg,x5
    80000178:	30005073          	csrrwi	x0,mstatus,0
    8000017c:	00000297          	auipc	x5,0x0
    80000180:	01428293          	addi	x5,x5,20 # 80000190 <test_32>
    80000184:	34129073          	csrrw	x0,mepc,x5
    80000188:	f1402573          	csrrs	x10,mhartid,x0
    8000018c:	30200073          	mret

0000000080000190 <test_32>:
    80000190:	02000193          	addi	x3,x0,32
    80000194:	000080b7          	lui	x1,0x8
    80000198:	e000809b          	addiw	x1,x1,-512 # 7e00 <_start-0x7fff8200>
    8000019c:	06db7137          	lui	x2,0x6db7
    800001a0:	db71011b          	addiw	x2,x2,-585 # 6db6db7 <_start-0x79249249>
    800001a4:	00c11113          	slli	x2,x2,0xc
    800001a8:	db710113          	addi	x2,x2,-585
    800001ac:	00c11113          	slli	x2,x2,0xc
    800001b0:	db710113          	addi	x2,x2,-585
    800001b4:	00c11113          	slli	x2,x2,0xc
    800001b8:	db710113          	addi	x2,x2,-585
    800001bc:	0a209733          	clmul	x14,x1,x2
    800001c0:	000063b7          	lui	x7,0x6
    800001c4:	a003839b          	addiw	x7,x7,-1536 # 5a00 <_start-0x7fffa600>
    800001c8:	48771c63          	bne	x14,x7,80000660 <fail>

00000000800001cc <test_33>:
    800001cc:	02100193          	addi	x3,x0,33
    800001d0:	000080b7          	lui	x1,0x8
    800001d4:	fc00809b          	addiw	x1,x1,-64 # 7fc0 <_start-0x7fff8040>
    800001d8:	06db7137          	lui	x2,0x6db7
    800001dc:	db71011b          	addiw	x2,x2,-585 # 6db6db7 <_start-0x79249249>
    800001e0:	00c11113          	slli	x2,x2,0xc
    800001e4:	db710113          	addi	x2,x2,-585
    800001e8:	00c11113          	slli	x2,x2,0xc
    800001ec:	db710113          	addi	x2,x2,-585
    800001f0:	00c11113          	slli	x2,x2,0xc
    800001f4:	db710113          	addi	x2,x2,-585
    800001f8:	0a209733          	clmul	x14,x1,x2
    800001fc:	000063b7          	lui	x7,0x6
    80000200:	b403839b          	addiw	x7,x7,-1216 # 5b40 <_start-0x7fffa4c0>
    80000204:	44771e63          	bne	x14,x7,80000660 <fail>

0000000080000208 <test_2>:
    80000208:	00200193          	addi	x3,x0,2
    8000020c:	00000093          	addi	x1,x0,0
    80000210:	00000113          	addi	x2,x0,0
    80000214:	0a209733          	clmul	x14,x1,x2
    80000218:	00000393          	addi	x7,x0,0
    8000021c:	44771263          	bne	x14,x7,80000660 <fail>

0000000080000220 <test_3>:
    80000220:	00300193          	addi	x3,x0,3
    80000224:	00100093          	addi	x1,x0,1
    80000228:	00100113          	addi	x2,x0,1
    8000022c:	0a209733          	clmul	x14,x1,x2
    80000230:	00100393          	addi	x7,x0,1
    80000234:	42771663          	bne	x14,x7,80000660 <fail>

0000000080000238 <test_4>:
    80000238:	00400193          	addi	x3,x0,4
    8000023c:	00300093          	addi	x1,x0,3
    80000240:	00700113          	addi	x2,x0,7
    80000244:	0a209733          	clmul	x14,x1,x2
    80000248:	00900393          	addi	x7,x0,9
    8000024c:	40771a63          	bne	x14,x7,80000660 <fail>

0000000080000250 <test_5>:
    80000250:	00500193          	addi	x3,x0,5
    80000254:	00000093          	addi	x1,x0,0
    80000258:	ffff8137          	lui	x2,0xffff8
    8000025c:	0a209733          	clmul	x14,x1,x2
    80000260:	00000393          	addi	x7,x0,0
    80000264:	3e771e63          	bne	x14,x7,80000660 <fail>

0000000080000268 <test_6>:
    80000268:	00600193          	addi	x3,x0,6
    8000026c:	800000b7          	lui	x1,0x80000
    80000270:	00000113          	addi	x2,x0,0
    80000274:	0a209733          	clmul	x14,x1,x2
    80000278:	00000393          	addi	x7,x0,0
    8000027c:	3e771263          	bne	x14,x7,80000660 <fail>

0000000080000280 <test_7>:
    80000280:	00700193          	addi	x3,x0,7
    80000284:	800000b7          	lui	x1,0x80000
    80000288:	ffff8137          	lui	x2,0xffff8
    8000028c:	0a209733          	clmul	x14,x1,x2
    80000290:	000153b7          	lui	x7,0x15
    80000294:	5553839b          	addiw	x7,x7,1365 # 15555 <_start-0x7ffeaaab>
    80000298:	02e39393          	slli	x7,x7,0x2e
    8000029c:	3c771263          	bne	x14,x7,80000660 <fail>

00000000800002a0 <test_30>:
    800002a0:	01e00193          	addi	x3,x0,30
    800002a4:	faaab0b7          	lui	x1,0xfaaab
    800002a8:	aab0809b          	addiw	x1,x1,-1365 # fffffffffaaaaaab <_end+0xffffffff7aaa8aab>
    800002ac:	00c09093          	slli	x1,x1,0xc
    800002b0:	aab08093          	addi	x1,x1,-1365
    800002b4:	00c09093          	slli	x1,x1,0xc
    800002b8:	aab08093          	addi	x1,x1,-1365
    800002bc:	00c09093          	slli	x1,x1,0xc
    800002c0:	aab08093          	addi	x1,x1,-1365
    800002c4:	00030137          	lui	x2,0x30
    800002c8:	e7d1011b          	addiw	x2,x2,-387 # 2fe7d <_start-0x7ffd0183>
    800002cc:	0a209733          	clmul	x14,x1,x2
    800002d0:	fffc33b7          	lui	x7,0xfffc3
    800002d4:	24f3839b          	addiw	x7,x7,591 # fffffffffffc324f <_end+0xffffffff7ffc124f>
    800002d8:	38771463          	bne	x14,x7,80000660 <fail>

00000000800002dc <test_31>:
    800002dc:	01f00193          	addi	x3,x0,31
    800002e0:	000300b7          	lui	x1,0x30
    800002e4:	e7d0809b          	addiw	x1,x1,-387 # 2fe7d <_start-0x7ffd0183>
    800002e8:	faaab137          	lui	x2,0xfaaab
    800002ec:	aab1011b          	addiw	x2,x2,-1365 # fffffffffaaaaaab <_end+0xffffffff7aaa8aab>
    800002f0:	00c11113          	slli	x2,x2,0xc
    800002f4:	aab10113          	addi	x2,x2,-1365
    800002f8:	00c11113          	slli	x2,x2,0xc
    800002fc:	aab10113          	addi	x2,x2,-1365
    80000300:	00c11113          	slli	x2,x2,0xc
    80000304:	aab10113          	addi	x2,x2,-1365
    80000308:	0a209733          	clmul	x14,x1,x2
    8000030c:	fffc33b7          	lui	x7,0xfffc3
    80000310:	24f3839b          	addiw	x7,x7,591 # fffffffffffc324f <_end+0xffffffff7ffc124f>
    80000314:	34771663          	bne	x14,x7,80000660 <fail>

0000000080000318 <test_8>:
    80000318:	00800193          	addi	x3,x0,8
    8000031c:	00d00093          	addi	x1,x0,13
    80000320:	00b00113          	addi	x2,x0,11
    80000324:	0a2090b3          	clmul	x1,x1,x2
    80000328:	07f00393          	addi	x7,x0,127
    8000032c:	32709a63          	bne	x1,x7,80000660 <fail>

0000000080000330 <test_9>:
    80000330:	00900193          	addi	x3,x0,9
    80000334:	00e00093          	addi	x1,x0,14
    80000338:	00b00113          	addi	x2,x0,11
    8000033c:	0a209133          	clmul	x2,x1,x2
    80000340:	06200393          	addi	x7,x0,98
    80000344:	30711e63          	bne	x2,x7,80000660 <fail>

0000000080000348 <test_10>:
    80000348:	00a00193          	addi	x3,x0,10
    8000034c:	00d00093          	addi	x1,x0,13
    80000350:	0a1090b3          	clmul	x1,x1,x1
    80000354:	05100393          	addi	x7,x0,81
    80000358:	30709463          	bne	x1,x7,80000660 <fail>

000000008000035c <test_11>:
    8000035c:	00b00193          	addi	x3,x0,11
    80000360:	00000213          	addi	x4,x0,0
    80000364:	00d00093          	addi	x1,x0,13
    80000368:	00b00113          	addi	x2,x0,11
    8000036c:	0a209733          	clmul	x14,x1,x2
    80000370:	00070313          	addi	x6,x14,0
    80000374:	00120213          	addi	x4,x4,1 # 1 <_start-0x7fffffff>
    80000378:	00200293          	addi	x5,x0,2
    8000037c:	fe5214e3          	bne	x4,x5,80000364 <test_11+0x8>
    80000380:	07f00393          	addi	x7,x0,127
    80000384:	2c731e63          	bne	x6,x7,80000660 <fail>

0000000080000388 <test_12>:
    80000388:	00c00193          	addi	x3,x0,12
    8000038c:	00000213          	addi	x4,x0,0
    80000390:	00e00093          	addi	x1,x0,14
    80000394:	00b00113          	addi	x2,x0,11
    80000398:	0a209733          	clmul	x14,x1,x2
    8000039c:	00000013          	addi	x0,x0,0
    800003a0:	00070313          	addi	x6,x14,0
    800003a4:	00120213          	addi	x4,x4,1 # 1 <_start-0x7fffffff>
    800003a8:	00200293          	addi	x5,x0,2
    800003ac:	fe5212e3          	bne	x4,x5,80000390 <test_12+0x8>
    800003b0:	06200393          	addi	x7,x0,98
    800003b4:	2a731663          	bne	x6,x7,80000660 <fail>

00000000800003b8 <test_13>:
    800003b8:	00d00193          	addi	x3,x0,13
    800003bc:	00000213          	addi	x4,x0,0
    800003c0:	00f00093          	addi	x1,x0,15
    800003c4:	00b00113          	addi	x2,x0,11
    800003c8:	0a209733          	clmul	x14,x1,x2
    800003cc:	00000013          	addi	x0,x0,0
    800003d0:	00000013          	addi	x0,x0,0
    800003d4:	00070313          	addi	x6,x14,0
    800003d8:	00120213          	addi	x4,x4,1 # 1 <_start-0x7fffffff>
    800003dc:	00200293          	addi	x5,x0,2
    800003e0:	fe5210e3          	bne	x4,x5,800003c0 <test_13+0x8>
    800003e4:	06900393          	addi	x7,x0,105
    800003e8:	26731c63          	bne	x6,x7,80000660 <fail>

00000000800003ec <test_14>:
    800003ec:	00e00193          	addi	x3,x0,14
    800003f0:	00000213          	addi	x4,x0,0
    800003f4:	00d00093          	addi	x1,x0,13
    800003f8:	00b00113          	addi	x2,x0,11
    800003fc:	0a209733          	clmul	x14,x1,x2
    80000400:	00120213          	addi	x4,x4,1 # 1 <_start-0x7fffffff>
    80000404:	00200293          	addi	x5,x0,2
    80000408:	fe5216e3          	bne	x4,x5,800003f4 <test_14+0x8>
    8000040c:	07f00393          	addi	x7,x0,127
    80000410:	24771863          	bne	x14,x7,80000660 <fail>

0000000080000414 <test_15>:
    80000414:	00f00193          	addi	x3,x0,15
    80000418:	00000213          	addi	x4,x0,0
    8000041c:	00e00093          	addi	x1,x0,14
    80000420:	00b00113          	addi	x2,x0,11
    80000424:	00000013          	addi	x0,x0,0
    80000428:	0a209733          	clmul	x14,x1,x2
    8000042c:	00120213          	addi	x4,x4,1 # 1 <_start-0x7fffffff>
    80000430:	00200293          	addi	x5,x0,2
    80000434:	fe5214e3          	bne	x4,x5,8000041c <test_15+0x8>
    80000438:	06200393          	addi	x7,x0,98
    8000043c:	22771263          	bne	x14,x7,80000660 <fail>

0000000080000440 <test_16>:
    80000440:	01000193          	addi	x3,x0,16
    80000444:	00000213          	addi	x4,x0,0
    80000448:	00f00093          	addi	x1,x0,15
    8000044c:	00b00113          	addi	x2,x0,11
    80000450:	00000013          	addi	x0,x0,0
    80000454:	00000013          	addi	x0,x0,0
    80000458:	0a209733          	clmul	x14,x1,x2
    8000045c:	00120213          	addi	x4,x4,1 # 1 <_start-0x7fffffff>
    80000460:	00200293          	addi	x5,x0,2
    80000464:	fe5212e3          	bne	x4,x5,80000448 <test_16+0x8>
    80000468:	06900393          	addi	x7,x0,105
    8000046c:	1e771a63          	bne	x14,x7,80000660 <fail>

0000000080000470 <test_17>:
    80000470:	01100193          	addi	x3,x0,17
    80000474:	00000213          	addi	x4,x0,0
    80000478:	00d00093          	addi	x1,x0,13
    8000047c:	00000013          	addi	x0,x0,0
    80000480:	00b00113          	addi	x2,x0,11
    80000484:	0a209733          	clmul	x14,x1,x2
    80000488:	00120213          	addi	x4,x4,1 # 1 <_start-0x7fffffff>
    8000048c:	00200293          	addi	x5,x0,2
    80000490:	fe5214e3          	bne	x4,x5,80000478 <test_17+0x8>
    80000494:	07f00393          	addi	x7,x0,127
    80000498:	1c771463          	bne	x14,x7,80000660 <fail>

000000008000049c <test_18>:
    8000049c:	01200193          	addi	x3,x0,18
    800004a0:	00000213          	addi	x4,x0,0
    800004a4:	00e00093          	addi	x1,x0,14
    800004a8:	00000013          	addi	x0,x0,0
    800004ac:	00b00113          	addi	x2,x0,11
    800004b0:	00000013          	addi	x0,x0,0
    800004b4:	0a209733          	clmul	x14,x1,x2
    800004b8:	00120213          	addi	x4,x4,1 # 1 <_start-0x7fffffff>
    800004bc:	00200293          	addi	x5,x0,2
    800004c0:	fe5212e3          	bne	x4,x5,800004a4 <test_18+0x8>
    800004c4:	06200393          	addi	x7,x0,98
    800004c8:	18771c63          	bne	x14,x7,80000660 <fail>

00000000800004cc <test_19>:
    800004cc:	01300193          	addi	x3,x0,19
    800004d0:	00000213          	addi	x4,x0,0
    800004d4:	00f00093          	addi	x1,x0,15
    800004d8:	00000013          	addi	x0,x0,0
    800004dc:	00000013          	addi	x0,x0,0
    800004e0:	00b00113          	addi	x2,x0,11
    800004e4:	0a209733          	clmul	x14,x1,x2
    800004e8:	00120213          	addi	x4,x4,1 # 1 <_start-0x7fffffff>
    800004ec:	00200293          	addi	x5,x0,2
    800004f0:	fe5212e3          	bne	x4,x5,800004d4 <test_19+0x8>
    800004f4:	06900393          	addi	x7,x0,105
    800004f8:	16771463          	bne	x14,x7,80000660 <fail>

00000000800004fc <test_20>:
    800004fc:	01400193          	addi	x3,x0,20
    80000500:	00000213          	addi	x4,x0,0
    80000504:	00b00113          	addi	x2,x0,11
    80000508:	00d00093          	addi	x1,x0,13
    8000050c:	0a209733          	clmul	x14,x1,x2
    80000510:	00120213          	addi	x4,x4,1 # 1 <_start-0x7fffffff>
    80000514:	00200293          	addi	x5,x0,2
    80000518:	fe5216e3          	bne	x4,x5,80000504 <test_20+0x8>
    8000051c:	07f00393          	addi	x7,x0,127
    80000520:	14771063          	bne	x14,x7,80000660 <fail>

0000000080000524 <test_21>:
    80000524:	01500193          	addi	x3,x0,21
    80000528:	00000213          	addi	x4,x0,0
    8000052c:	00b00113          	addi	x2,x0,11
    80000530:	00e00093          	addi	x1,x0,14
    80000534:	00000013          	addi	x0,x0,0
    80000538:	0a209733          	clmul	x14,x1,x2
    8000053c:	00120213          	addi	x4,x4,1 # 1 <_start-0x7fffffff>
    80000540:	00200293          	addi	x5,x0,2
    80000544:	fe5214e3          	bne	x4,x5,8000052c <test_21+0x8>
    80000548:	06200393          	addi	x7,x0,98
    8000054c:	10771a63          	bne	x14,x7,80000660 <fail>

0000000080000550 <test_22>:
    80000550:	01600193          	addi	x3,x0,22
    80000554:	00000213          	addi	x4,x0,0
    80000558:	00b00113          	addi	x2,x0,11
    8000055c:	00f00093          	addi	x1,x0,15
    80000560:	00000013          	addi	x0,x0,0
    80000564:	00000013          	addi	x0,x0,0
    80000568:	0a209733          	clmul	x14,x1,x2
    8000056c:	00120213          	addi	x4,x4,1 # 1 <_start-0x7fffffff>
    80000570:	00200293          	addi	x5,x0,2
    80000574:	fe5212e3          	bne	x4,x5,80000558 <test_22+0x8>
    80000578:	06900393          	addi	x7,x0,105
    8000057c:	0e771263          	bne	x14,x7,80000660 <fail>

0000000080000580 <test_23>:
    80000580:	01700193          	addi	x3,x0,23
    80000584:	00000213          	addi	x4,x0,0
    80000588:	00b00113          	addi	x2,x0,11
    8000058c:	00000013          	addi	x0,x0,0
    80000590:	00d00093          	addi	x1,x0,13
    80000594:	0a209733          	clmul	x14,x1,x2
    80000598:	00120213          	addi	x4,x4,1 # 1 <_start-0x7fffffff>
    8000059c:	00200293          	addi	x5,x0,2
    800005a0:	fe5214e3          	bne	x4,x5,80000588 <test_23+0x8>
    800005a4:	07f00393          	addi	x7,x0,127
    800005a8:	0a771c63          	bne	x14,x7,80000660 <fail>

00000000800005ac <test_24>:
    800005ac:	01800193          	addi	x3,x0,24
    800005b0:	00000213          	addi	x4,x0,0
    800005b4:	00b00113          	addi	x2,x0,11
    800005b8:	00000013          	addi	x0,x0,0
    800005bc:	00e00093          	addi	x1,x0,14
    800005c0:	00000013          	addi	x0,x0,0
    800005c4:	0a209733          	clmul	x14,x1,x2
    800005c8:	00120213          	addi	x4,x4,1 # 1 <_start-0x7fffffff>
    800005cc:	00200293          	addi	x5,x0,2
    800005d0:	fe5212e3          	bne	x4,x5,800005b4 <test_24+0x8>
    800005d4:	06200393          	addi	x7,x0,98
    800005d8:	08771463          	bne	x14,x7,80000660 <fail>

00000000800005dc <test_25>:
    800005dc:	01900193          	addi	x3,x0,25
    800005e0:	00000213          	addi	x4,x0,0
    800005e4:	00b00113          	addi	x2,x0,11
    800005e8:	00000013          	addi	x0,x0,0
    800005ec:	00000013          	addi	x0,x0,0
    800005f0:	00f00093          	addi	x1,x0,15
    800005f4:	0a209733          	clmul	x14,x1,x2
    800005f8:	00120213          	addi	x4,x4,1 # 1 <_start-0x7fffffff>
    800005fc:	00200293          	addi	x5,x0,2
    80000600:	fe5212e3          	bne	x4,x5,800005e4 <test_25+0x8>
    80000604:	06900393          	addi	x7,x0,105
    80000608:	04771c63          	bne	x14,x7,80000660 <fail>

000000008000060c <test_26>:
    8000060c:	01a00193          	addi	x3,x0,26
    80000610:	01f00093          	addi	x1,x0,31
    80000614:	0a101133          	clmul	x2,x0,x1
    80000618:	00000393          	addi	x7,x0,0
    8000061c:	04711263          	bne	x2,x7,80000660 <fail>

0000000080000620 <test_27>:
    80000620:	01b00193          	addi	x3,x0,27
    80000624:	02000093          	addi	x1,x0,32
    80000628:	0a009133          	clmul	x2,x1,x0
    8000062c:	00000393          	addi	x7,x0,0
    80000630:	02711863          	bne	x2,x7,80000660 <fail>

0000000080000634 <test_28>:
    80000634:	01c00193          	addi	x3,x0,28
    80000638:	0a0010b3          	clmul	x1,x0,x0
    8000063c:	00000393          	addi	x7,x0,0
    80000640:	02709063          	bne	x1,x7,80000660 <fail>

0000000080000644 <test_29>:
    80000644:	01d00193          	addi	x3,x0,29
    80000648:	02100093          	addi	x1,x0,33
    8000064c:	02200113          	addi	x2,x0,34
    80000650:	0a209033          	clmul	x0,x1,x2
    80000654:	00000393          	addi	x7,x0,0
    80000658:	00701463          	bne	x0,x7,80000660 <fail>
    8000065c:	02301063          	bne	x0,x3,8000067c <pass>

0000000080000660 <fail>:
    80000660:	0ff0000f          	fence	iorw,iorw
    80000664:	00018063          	beq	x3,x0,80000664 <fail+0x4>
    80000668:	00119193          	slli	x3,x3,0x1
    8000066c:	0011e193          	ori	x3,x3,1
    80000670:	05d00893          	addi	x17,x0,93
    80000674:	00018513          	addi	x10,x3,0
    80000678:	00000073          	ecall

000000008000067c <pass>:
    8000067c:	0ff0000f          	fence	iorw,iorw
    80000680:	00100193          	addi	x3,x0,1
    80000684:	05d00893          	addi	x17,x0,93
    80000688:	00000513          	addi	x10,x0,0
    8000068c:	00000073          	ecall
    80000690:	c0001073          	unimp
	...
